00000000  7F45              jg 0x47
00000002  4C                dec sp
00000003  46                inc si
00000004  0101              add [bx+di],ax
00000006  0100              add [bx+si],ax
00000008  0000              add [bx+si],al
0000000A  0000              add [bx+si],al
0000000C  0000              add [bx+si],al
0000000E  0000              add [bx+si],al
00000010  0200              add al,[bx+si]
00000012  0300              add ax,[bx+si]
00000014  0100              add [bx+si],ax
00000016  0000              add [bx+si],al
00000018  60                pushaw
00000019  8604              xchg al,[si]
0000001B  0834              or [si],dh
0000001D  0000              add [bx+si],al
0000001F  00FC              add ah,bh
00000021  1B00              sbb ax,[bx+si]
00000023  0000              add [bx+si],al
00000025  0000              add [bx+si],al
00000027  0034              add [si],dh
00000029  0020              add [bx+si],ah
0000002B  0008              add [bx+si],cl
0000002D  0028              add [bx+si],ch
0000002F  001F              add [bx],bl
00000031  001C              add [si],bl
00000033  00060000          add [0x0],al
00000037  0034              add [si],dh
00000039  0000              add [bx+si],al
0000003B  0034              add [si],dh
0000003D  800408            add byte [si],0x8
00000040  3480              xor al,0x80
00000042  0408              add al,0x8
00000044  0001              add [bx+di],al
00000046  0000              add [bx+si],al
00000048  0001              add [bx+di],al
0000004A  0000              add [bx+si],al
0000004C  050000            add ax,0x0
0000004F  0004              add [si],al
00000051  0000              add [bx+si],al
00000053  0003              add [bp+di],al
00000055  0000              add [bx+si],al
00000057  0034              add [si],dh
00000059  0100              add [bx+si],ax
0000005B  0034              add [si],dh
0000005D  81040834          add word [si],0x3408
00000061  81040813          add word [si],0x1308
00000065  0000              add [bx+si],al
00000067  0013              add [bp+di],dl
00000069  0000              add [bx+si],al
0000006B  0004              add [si],al
0000006D  0000              add [bx+si],al
0000006F  0001              add [bx+di],al
00000071  0000              add [bx+si],al
00000073  0001              add [bx+di],al
00000075  0000              add [bx+si],al
00000077  0000              add [bx+si],al
00000079  0000              add [bx+si],al
0000007B  0000              add [bx+si],al
0000007D  800408            add byte [si],0x8
00000080  00800408          add [bx+si+0x804],al
00000084  C80D0000          enter 0xd,0x0
00000088  C80D0000          enter 0xd,0x0
0000008C  050000            add ax,0x0
0000008F  0000              add [bx+si],al
00000091  1000              adc [bx+si],al
00000093  0001              add [bx+di],al
00000095  0000              add [bx+si],al
00000097  00C8              add al,cl
00000099  0D0000            or ax,0x0
0000009C  C89D0408          enter 0x49d,0x8
000000A0  C89D0408          enter 0x49d,0x8
000000A4  50                push ax
000000A5  0100              add [bx+si],ax
000000A7  00AC0100          add [si+0x1],ch
000000AB  00060000          add [0x0],al
000000AF  0000              add [bx+si],al
000000B1  1000              adc [bx+si],al
000000B3  0002              add [bp+si],al
000000B5  0000              add [bx+si],al
000000B7  00D8              add al,bl
000000B9  0D0000            or ax,0x0
000000BC  D89D0408          fcomp dword [di+0x804]
000000C0  D89D0408          fcomp dword [di+0x804]
000000C4  0001              add [bx+di],al
000000C6  0000              add [bx+si],al
000000C8  0001              add [bx+di],al
000000CA  0000              add [bx+si],al
000000CC  06                push es
000000CD  0000              add [bx+si],al
000000CF  0004              add [si],al
000000D1  0000              add [bx+si],al
000000D3  0004              add [si],al
000000D5  0000              add [bx+si],al
000000D7  004801            add [bx+si+0x1],cl
000000DA  0000              add [bx+si],al
000000DC  48                dec ax
000000DD  81040848          add word [si],0x4808
000000E1  81040844          add word [si],0x4408
000000E5  0000              add [bx+si],al
000000E7  004400            add [si+0x0],al
000000EA  0000              add [bx+si],al
000000EC  0400              add al,0x0
000000EE  0000              add [bx+si],al
000000F0  0400              add al,0x0
000000F2  0000              add [bx+si],al
000000F4  50                push ax
000000F5  E574              in ax,0x74
000000F7  64380B            cmp [fs:bp+di],cl
000000FA  0000              add [bx+si],al
000000FC  388B0408          cmp [bp+di+0x804],cl
00000100  388B0408          cmp [bp+di+0x804],cl
00000104  7C00              jl 0x106
00000106  0000              add [bx+si],al
00000108  7C00              jl 0x10a
0000010A  0000              add [bx+si],al
0000010C  0400              add al,0x0
0000010E  0000              add [bx+si],al
00000110  0400              add al,0x0
00000112  0000              add [bx+si],al
00000114  51                push cx
00000115  E574              in ax,0x74
00000117  640000            add [fs:bx+si],al
0000011A  0000              add [bx+si],al
0000011C  0000              add [bx+si],al
0000011E  0000              add [bx+si],al
00000120  0000              add [bx+si],al
00000122  0000              add [bx+si],al
00000124  0000              add [bx+si],al
00000126  0000              add [bx+si],al
00000128  0000              add [bx+si],al
0000012A  0000              add [bx+si],al
0000012C  06                push es
0000012D  0000              add [bx+si],al
0000012F  0010              add [bx+si],dl
00000131  0000              add [bx+si],al
00000133  002F              add [bx],ch
00000135  6C                insb
00000136  69622F6C64        imul sp,[bp+si+0x2f],word 0x646c
0000013B  2D6C69            sub ax,0x696c
0000013E  6E                outsb
0000013F  7578              jnz 0x1b9
00000141  2E736F            cs jnc 0x1b3
00000144  2E3200            xor al,[cs:bx+si]
00000147  0004              add [si],al
00000149  0000              add [bx+si],al
0000014B  0010              add [bx+si],dl
0000014D  0000              add [bx+si],al
0000014F  0001              add [bx+di],al
00000151  0000              add [bx+si],al
00000153  00474E            add [bx+0x4e],al
00000156  55                push bp
00000157  0000              add [bx+si],al
00000159  0000              add [bx+si],al
0000015B  0002              add [bp+si],al
0000015D  0000              add [bx+si],al
0000015F  00060000          add [0x0],al
00000163  0020              add [bx+si],ah
00000165  0000              add [bx+si],al
00000167  0004              add [si],al
00000169  0000              add [bx+si],al
0000016B  0014              add [si],dl
0000016D  0000              add [bx+si],al
0000016F  0003              add [bp+di],al
00000171  0000              add [bx+si],al
00000173  00474E            add [bx+0x4e],al
00000176  55                push bp
00000177  008E5D7F          add [bp+0x7f5d],cl
0000017B  29989612          sub [bx+si+0x1296],bx
0000017F  D3                db 0xd3
00000180  B51F              mov ch,0x1f
00000182  02C7              add al,bh
00000184  8E54B4            mov ss,[si-0x4c]
00000187  7FEB              jg 0x174
00000189  16                push ss
0000018A  660F0300          lsl eax,[bx+si]
0000018E  0000              add [bx+si],al
00000190  0E                push cs
00000191  0000              add [bx+si],al
00000193  0001              add [bx+di],al
00000195  0000              add [bx+si],al
00000197  0005              add [di],al
00000199  0000              add [bx+si],al
0000019B  0000              add [bx+si],al
0000019D  6300              arpl [bx+si],ax
0000019F  300E0000          xor [0x0],cl
000001A3  0010              add [bx+si],dl
000001A5  0000              add [bx+si],al
000001A7  0011              add [bx+di],dl
000001A9  0000              add [bx+si],al
000001AB  00C8              add al,cl
000001AD  810AD29D          or word [bp+si],0x9dd2
000001B1  63BDC5AD          arpl [di-0x523b],di
000001B5  4B                dec bx
000001B6  E3C0              jcxz 0x178
000001B8  2945D5            sub [di-0x2b],ax
000001BB  4C                dec sp
000001BC  0000              add [bx+si],al
000001BE  0000              add [bx+si],al
000001C0  0000              add [bx+si],al
000001C2  0000              add [bx+si],al
000001C4  0000              add [bx+si],al
000001C6  0000              add [bx+si],al
000001C8  0000              add [bx+si],al
000001CA  0000              add [bx+si],al
000001CC  3A01              cmp al,[bx+di]
000001CE  0000              add [bx+si],al
000001D0  0000              add [bx+si],al
000001D2  0000              add [bx+si],al
000001D4  0000              add [bx+si],al
000001D6  0000              add [bx+si],al
000001D8  1200              adc al,[bx+si]
000001DA  0000              add [bx+si],al
000001DC  1000              adc [bx+si],al
000001DE  0000              add [bx+si],al
000001E0  0000              add [bx+si],al
000001E2  0000              add [bx+si],al
000001E4  0000              add [bx+si],al
000001E6  0000              add [bx+si],al
000001E8  2000              and [bx+si],al
000001EA  0000              add [bx+si],al
000001EC  1F                pop ds
000001ED  0000              add [bx+si],al
000001EF  0000              add [bx+si],al
000001F1  0000              add [bx+si],al
000001F3  0000              add [bx+si],al
000001F5  0000              add [bx+si],al
000001F7  0020              add [bx+si],ah
000001F9  0000              add [bx+si],al
000001FB  00B00000          add [bx+si+0x0],dh
000001FF  0000              add [bx+si],al
00000201  0000              add [bx+si],al
00000203  0000              add [bx+si],al
00000205  0000              add [bx+si],al
00000207  0012              add [bp+si],dl
00000209  0000              add [bx+si],al
0000020B  004E01            add [bp+0x1],cl
0000020E  0000              add [bx+si],al
00000210  0000              add [bx+si],al
00000212  0000              add [bx+si],al
00000214  0000              add [bx+si],al
00000216  0000              add [bx+si],al
00000218  1200              adc al,[bx+si]
0000021A  0000              add [bx+si],al
0000021C  3300              xor ax,[bx+si]
0000021E  0000              add [bx+si],al
00000220  0000              add [bx+si],al
00000222  0000              add [bx+si],al
00000224  0000              add [bx+si],al
00000226  0000              add [bx+si],al
00000228  2000              and [bx+si],al
0000022A  0000              add [bx+si],al
0000022C  4F                dec di
0000022D  0000              add [bx+si],al
0000022F  0000              add [bx+si],al
00000231  0000              add [bx+si],al
00000233  0000              add [bx+si],al
00000235  0000              add [bx+si],al
00000237  0020              add [bx+si],ah
00000239  0000              add [bx+si],al
0000023B  0027              add [bx],ah
0000023D  0100              add [bx+si],ax
0000023F  0000              add [bx+si],al
00000241  0000              add [bx+si],al
00000243  0000              add [bx+si],al
00000245  0000              add [bx+si],al
00000247  0012              add [bp+si],dl
00000249  0000              add [bx+si],al
0000024B  0033              add [bp+di],dh
0000024D  0100              add [bx+si],ax
0000024F  0000              add [bx+si],al
00000251  0000              add [bx+si],al
00000253  0000              add [bx+si],al
00000255  0000              add [bx+si],al
00000257  0012              add [bp+si],dl
00000259  0000              add [bx+si],al
0000025B  00AA0000          add [bp+si+0x0],ch
0000025F  0000              add [bx+si],al
00000261  0000              add [bx+si],al
00000263  0000              add [bx+si],al
00000265  0000              add [bx+si],al
00000267  0012              add [bp+si],dl
00000269  0000              add [bx+si],al
0000026B  004701            add [bx+0x1],al
0000026E  0000              add [bx+si],al
00000270  0000              add [bx+si],al
00000272  0000              add [bx+si],al
00000274  0000              add [bx+si],al
00000276  0000              add [bx+si],al
00000278  1200              adc al,[bx+si]
0000027A  0000              add [bx+si],al
0000027C  EE                out dx,al
0000027D  0000              add [bx+si],al
0000027F  0000              add [bx+si],al
00000281  0000              add [bx+si],al
00000283  0000              add [bx+si],al
00000285  0000              add [bx+si],al
00000287  0012              add [bp+si],dl
00000289  0000              add [bx+si],al
0000028B  002E0100          add [0x1],ch
0000028F  0000              add [bx+si],al
00000291  0000              add [bx+si],al
00000293  0000              add [bx+si],al
00000295  0000              add [bx+si],al
00000297  0012              add [bp+si],dl
00000299  0000              add [bx+si],al
0000029B  00C8              add al,cl
0000029D  0000              add [bx+si],al
0000029F  0018              add [bx+si],bl
000002A1  9F                lahf
000002A2  0408              add al,0x8
000002A4  2C00              sub al,0x0
000002A6  0000              add [bx+si],al
000002A8  2100              and [bx+si],ax
000002AA  1A00              sbb al,[bx+si]
000002AC  81000000          add word [bx+si],0x0
000002B0  44                inc sp
000002B1  9F                lahf
000002B2  0408              add al,0x8
000002B4  2C00              sub al,0x0
000002B6  0000              add [bx+si],al
000002B8  2100              and [bx+si],ax
000002BA  1A00              sbb al,[bx+si]
000002BC  1801              sbb [bx+di],al
000002BE  0000              add [bx+si],al
000002C0  AC                lodsb
000002C1  8A04              mov al,[si]
000002C3  0804              or [si],al
000002C5  0000              add [bx+si],al
000002C7  0011              add [bx+di],dl
000002C9  0010              add [bx+si],dl
000002CB  006900            add [bx+di+0x0],ch
000002CE  0000              add [bx+si],al
000002D0  E085              loopne 0x257
000002D2  0408              add al,0x8
000002D4  0000              add [bx+si],al
000002D6  0000              add [bx+si],al
000002D8  1200              adc al,[bx+si]
000002DA  0000              add [bx+si],al
000002DC  006C69            add [si+0x69],ch
000002DF  62                db 0x62
000002E0  7374              jnc 0x356
000002E2  64632B            arpl [fs:bp+di],bp
000002E5  2B2E736F          sub bp,[0x6f73]
000002E9  2E36005F5F        add [ss:bx+0x5f],bl
000002EE  676D              a32 insw
000002F0  6F                outsw
000002F1  6E                outsb
000002F2  5F                pop di
000002F3  7374              jnc 0x369
000002F5  61                popaw
000002F6  7274              jc 0x36c
000002F8  5F                pop di
000002F9  5F                pop di
000002FA  005F4A            add [bx+0x4a],bl
000002FD  765F              jna 0x35e
000002FF  52                push dx
00000300  65676973746572    imul si,[gs:ebx+0x74],word 0x7265
00000307  43                inc bx
00000308  6C                insb
00000309  61                popaw
0000030A  7373              jnc 0x37f
0000030C  657300            gs jnc 0x30f
0000030F  5F                pop di
00000310  49                dec cx
00000311  54                push sp
00000312  4D                dec bp
00000313  5F                pop di
00000314  64657265          gs jc 0x37d
00000318  676973746572      imul si,[ebx+0x74],word 0x7265
0000031E  54                push sp
0000031F  4D                dec bp
00000320  43                inc bx
00000321  6C                insb
00000322  6F                outsw
00000323  6E                outsb
00000324  6554              gs push sp
00000326  61                popaw
00000327  626C65            bound bp,[si+0x65]
0000032A  005F49            add [bx+0x49],bl
0000032D  54                push sp
0000032E  4D                dec bp
0000032F  5F                pop di
00000330  7265              jc 0x397
00000332  676973746572      imul si,[ebx+0x74],word 0x7265
00000338  54                push sp
00000339  4D                dec bp
0000033A  43                inc bx
0000033B  6C                insb
0000033C  6F                outsw
0000033D  6E                outsb
0000033E  6554              gs push sp
00000340  61                popaw
00000341  626C65            bound bp,[si+0x65]
00000344  005F5A            add [bx+0x5a],bl
00000347  4E                dec si
00000348  53                push bx
00000349  7438              jz 0x383
0000034B  696F735F62        imul bp,[bx+0x73],word 0x625f
00000350  61                popaw
00000351  7365              jnc 0x3b8
00000353  3449              xor al,0x49
00000355  6E                outsb
00000356  6974443145        imul si,[si+0x44],word 0x4531
0000035B  7600              jna 0x35d
0000035D  5F                pop di
0000035E  5A                pop dx
0000035F  54                push sp
00000360  56                push si
00000361  4E                dec si
00000362  3130              xor [bx+si],si
00000364  5F                pop di
00000365  5F                pop di
00000366  637878            arpl [bx+si+0x78],di
00000369  61                popaw
0000036A  626976            bound bp,[bx+di+0x76]
0000036D  3132              xor [bp+si],si
0000036F  305F5F            xor [bx+0x5f],bl
00000372  7369              jnc 0x3dd
00000374  5F                pop di
00000375  636C61            arpl [si+0x61],bp
00000378  7373              jnc 0x3ed
0000037A  5F                pop di
0000037B  7479              jz 0x3f6
0000037D  7065              jo 0x3e4
0000037F  5F                pop di
00000380  696E666F45        imul bp,[bp+0x66],word 0x456f
00000385  005F5A            add [bx+0x5a],bl
00000388  6E                outsb
00000389  776A              ja 0x3f5
0000038B  005F5A            add [bx+0x5a],bl
0000038E  4E                dec si
0000038F  53                push bx
00000390  7438              jz 0x3ca
00000392  696F735F62        imul bp,[bx+0x73],word 0x625f
00000397  61                popaw
00000398  7365              jnc 0x3ff
0000039A  3449              xor al,0x49
0000039C  6E                outsb
0000039D  6974433145        imul si,[si+0x43],word 0x4531
000003A2  7600              jna 0x3a4
000003A4  5F                pop di
000003A5  5A                pop dx
000003A6  54                push sp
000003A7  56                push si
000003A8  4E                dec si
000003A9  3130              xor [bx+si],si
000003AB  5F                pop di
000003AC  5F                pop di
000003AD  637878            arpl [bx+si+0x78],di
000003B0  61                popaw
000003B1  626976            bound bp,[bx+di+0x76]
000003B4  3131              xor [bx+di],si
000003B6  37                aaa
000003B7  5F                pop di
000003B8  5F                pop di
000003B9  636C61            arpl [si+0x61],bp
000003BC  7373              jnc 0x431
000003BE  5F                pop di
000003BF  7479              jz 0x43a
000003C1  7065              jo 0x428
000003C3  5F                pop di
000003C4  696E666F45        imul bp,[bp+0x66],word 0x456f
000003C9  005F5A            add [bx+0x5a],bl
000003CC  646C              fs insb
000003CE  50                push ax
000003CF  766A              jna 0x43b
000003D1  006C69            add [si+0x69],ch
000003D4  626D2E            bound bp,[di+0x2e]
000003D7  736F              jnc 0x448
000003D9  2E36006C69        add [ss:si+0x69],ch
000003DE  626763            bound sp,[bx+0x63]
000003E1  635F73            arpl [bx+0x73],bx
000003E4  2E736F            cs jnc 0x456
000003E7  2E3100            xor [cs:bx+si],ax
000003EA  6C                insb
000003EB  6962632E73        imul sp,[bp+si+0x63],word 0x732e
000003F0  6F                outsw
000003F1  2E36005F49        add [ss:bx+0x49],bl
000003F6  4F                dec di
000003F7  5F                pop di
000003F8  7374              jnc 0x46e
000003FA  64696E5F7573      imul bp,[fs:bp+0x5f],word 0x7375
00000400  6564007374        add [fs:bp+di+0x74],dh
00000405  7263              jc 0x46a
00000407  7079              jo 0x482
00000409  007075            add [bx+si+0x75],dh
0000040C  7473              jz 0x481
0000040E  007072            add [bx+si+0x72],dh
00000411  696E746600        imul bp,[bp+0x74],word 0x66
00000416  5F                pop di
00000417  5F                pop di
00000418  637861            arpl [bx+si+0x61],di
0000041B  5F                pop di
0000041C  61                popaw
0000041D  7465              jz 0x484
0000041F  7869              js 0x48a
00000421  7400              jz 0x423
00000423  6D                insw
00000424  61                popaw
00000425  6C                insb
00000426  6C                insb
00000427  6F                outsw
00000428  6300              arpl [bx+si],ax
0000042A  5F                pop di
0000042B  5F                pop di
0000042C  6C                insb
0000042D  6962635F73        imul sp,[bp+si+0x63],word 0x735f
00000432  7461              jz 0x495
00000434  7274              jc 0x4aa
00000436  5F                pop di
00000437  6D                insw
00000438  61                popaw
00000439  696E004358        imul bp,[bp+0x0],word 0x5843
0000043E  58                pop ax
0000043F  41                inc cx
00000440  42                inc dx
00000441  49                dec cx
00000442  5F                pop di
00000443  312E332E          xor [0x2e33],bp
00000447  3900              cmp [bx+si],ax
00000449  43                inc bx
0000044A  58                pop ax
0000044B  58                pop ax
0000044C  41                inc cx
0000044D  42                inc dx
0000044E  49                dec cx
0000044F  5F                pop di
00000450  312E3300          xor [0x33],bp
00000454  47                inc di
00000455  4C                dec sp
00000456  49                dec cx
00000457  42                inc dx
00000458  43                inc bx
00000459  58                pop ax
0000045A  58                pop ax
0000045B  5F                pop di
0000045C  332E3400          xor bp,[0x34]
00000460  47                inc di
00000461  4C                dec sp
00000462  49                dec cx
00000463  42                inc dx
00000464  43                inc bx
00000465  5F                pop di
00000466  322E3000          xor ch,[0x30]
0000046A  47                inc di
0000046B  4C                dec sp
0000046C  49                dec cx
0000046D  42                inc dx
0000046E  43                inc bx
0000046F  5F                pop di
00000470  322E312E          xor ch,[0x2e31]
00000474  3300              xor ax,[bx+si]
00000476  0000              add [bx+si],al
00000478  0200              add al,[bx+si]
0000047A  0000              add [bx+si],al
0000047C  0000              add [bx+si],al
0000047E  0300              add ax,[bx+si]
00000480  0400              add al,0x0
00000482  0000              add [bx+si],al
00000484  0000              add [bx+si],al
00000486  0400              add al,0x0
00000488  0400              add al,0x0
0000048A  0300              add ax,[bx+si]
0000048C  0400              add al,0x0
0000048E  06                push es
0000048F  0004              add [si],al
00000491  0005              add [di],al
00000493  0005              add [di],al
00000495  0001              add [bx+di],al
00000497  0003              add [bp+di],al
00000499  0000              add [bx+si],al
0000049B  0001              add [bx+di],al
0000049D  0003              add [bp+di],al
0000049F  0001              add [bx+di],al
000004A1  0000              add [bx+si],al
000004A3  0010              add [bx+si],dl
000004A5  0000              add [bx+si],al
000004A7  004000            add [bx+si+0x0],al
000004AA  0000              add [bx+si],al
000004AC  79D1              jns 0x47f
000004AE  AF                scasw
000004AF  0B00              or ax,[bx+si]
000004B1  00060060          add [0x6000],al
000004B5  0100              add [bx+si],ax
000004B7  0010              add [bx+si],dl
000004B9  0000              add [bx+si],al
000004BB  00D3              add bl,dl
000004BD  AF                scasw
000004BE  6B0500            imul ax,[di],byte +0x0
000004C1  0005              add [di],al
000004C3  006D01            add [di+0x1],ch
000004C6  0000              add [bx+si],al
000004C8  1000              adc [bx+si],al
000004CA  0000              add [bx+si],al
000004CC  7429              jz 0x4f7
000004CE  92                xchg ax,dx
000004CF  0800              or [bx+si],al
000004D1  0003              add [bp+di],al
000004D3  007801            add [bx+si+0x1],bh
000004D6  0000              add [bx+si],al
000004D8  0000              add [bx+si],al
000004DA  0000              add [bx+si],al
000004DC  0100              add [bx+si],ax
000004DE  0200              add al,[bx+si]
000004E0  0E                push cs
000004E1  0100              add [bx+si],ax
000004E3  0010              add [bx+si],dl
000004E5  0000              add [bx+si],al
000004E7  0000              add [bx+si],al
000004E9  0000              add [bx+si],al
000004EB  0010              add [bx+si],dl
000004ED  69690D0000        imul bp,[bx+di+0xd],word 0x0
000004F2  0400              add al,0x0
000004F4  8401              test [bx+di],al
000004F6  0000              add [bx+si],al
000004F8  1000              adc [bx+si],al
000004FA  0000              add [bx+si],al
000004FC  731F              jnc 0x51d
000004FE  69090000          imul cx,[bx+di],word 0x0
00000502  0200              add al,[bx+si]
00000504  8E01              mov es,[bx+di]
00000506  0000              add [bx+si],al
00000508  0000              add [bx+si],al
0000050A  0000              add [bx+si],al
0000050C  D89E0408          fcomp dword [bp+0x804]
00000510  06                push es
00000511  0200              add al,[bx+si]
00000513  0018              add [bx+si],bl
00000515  9F                lahf
00000516  0408              add al,0x8
00000518  050E00            add ax,0xe
0000051B  00449F            add [si-0x61],al
0000051E  0408              add al,0x8
00000520  050F00            add ax,0xf
00000523  00E8              add al,ch
00000525  9E                sahf
00000526  0408              add al,0x8
00000528  07                pop es
00000529  0100              add [bx+si],ax
0000052B  00EC              add ah,ch
0000052D  9E                sahf
0000052E  0408              add al,0x8
00000530  07                pop es
00000531  0400              add al,0x0
00000533  00F0              add al,dh
00000535  9E                sahf
00000536  0408              add al,0x8
00000538  07                pop es
00000539  050000            add ax,0x0
0000053C  F4                hlt
0000053D  9E                sahf
0000053E  0408              add al,0x8
00000540  07                pop es
00000541  1100              adc [bx+si],ax
00000543  00F8              add al,bh
00000545  9E                sahf
00000546  0408              add al,0x8
00000548  07                pop es
00000549  0800              or [bx+si],al
0000054B  00FC              add ah,bh
0000054D  9E                sahf
0000054E  0408              add al,0x8
00000550  07                pop es
00000551  0900              or [bx+si],ax
00000553  0000              add [bx+si],al
00000555  9F                lahf
00000556  0408              add al,0x8
00000558  07                pop es
00000559  0A00              or al,[bx+si]
0000055B  0004              add [si],al
0000055D  9F                lahf
0000055E  0408              add al,0x8
00000560  07                pop es
00000561  0B00              or ax,[bx+si]
00000563  0008              add [bx+si],cl
00000565  9F                lahf
00000566  0408              add al,0x8
00000568  07                pop es
00000569  0C00              or al,0x0
0000056B  000C              add [si],cl
0000056D  9F                lahf
0000056E  0408              add al,0x8
00000570  07                pop es
00000571  0D0000            or ax,0x0
00000574  53                push bx
00000575  83EC08            sub sp,byte +0x8
00000578  E81301            call word 0x68e
0000057B  0000              add [bx+si],al
0000057D  81C35F19          add bx,0x195f
00000581  0000              add [bx+si],al
00000583  8B83FCFF          mov ax,[bp+di-0x4]
00000587  FF                db 0xff
00000588  FF85C074          inc word [di+0x74c0]
0000058C  05E8BE            add ax,0xbee8
0000058F  0000              add [bx+si],al
00000591  0083C408          add [bp+di+0x8c4],al
00000595  5B                pop bx
00000596  C3                ret
00000597  0000              add [bx+si],al
00000599  0000              add [bx+si],al
0000059B  0000              add [bx+si],al
0000059D  0000              add [bx+si],al
0000059F  00FF              add bh,bh
000005A1  35E09E            xor ax,0x9ee0
000005A4  0408              add al,0x8
000005A6  FF25              jmp word [di]
000005A8  E49E              in al,0x9e
000005AA  0408              add al,0x8
000005AC  0000              add [bx+si],al
000005AE  0000              add [bx+si],al
000005B0  FF25              jmp word [di]
000005B2  E89E04            call word 0xa53
000005B5  086800            or [bx+si+0x0],ch
000005B8  0000              add [bx+si],al
000005BA  00E9              add cl,ch
000005BC  E0FF              loopne 0x5bd
000005BE  FF                db 0xff
000005BF  FF                db 0xff
000005C0  FF25              jmp word [di]
000005C2  EC                in al,dx
000005C3  9E                sahf
000005C4  0408              add al,0x8
000005C6  680800            push word 0x8
000005C9  0000              add [bx+si],al
000005CB  E9D0FF            jmp word 0x59e
000005CE  FF                db 0xff
000005CF  FF                db 0xff
000005D0  FF25              jmp word [di]
000005D2  F09E              lock sahf
000005D4  0408              add al,0x8
000005D6  681000            push word 0x10
000005D9  0000              add [bx+si],al
000005DB  E9C0FF            jmp word 0x59e
000005DE  FF                db 0xff
000005DF  FF                db 0xff
000005E0  FF25              jmp word [di]
000005E2  F4                hlt
000005E3  9E                sahf
000005E4  0408              add al,0x8
000005E6  681800            push word 0x18
000005E9  0000              add [bx+si],al
000005EB  E9B0FF            jmp word 0x59e
000005EE  FF                db 0xff
000005EF  FF                db 0xff
000005F0  FF25              jmp word [di]
000005F2  F8                clc
000005F3  9E                sahf
000005F4  0408              add al,0x8
000005F6  682000            push word 0x20
000005F9  0000              add [bx+si],al
000005FB  E9A0FF            jmp word 0x59e
000005FE  FF                db 0xff
000005FF  FF                db 0xff
00000600  FF25              jmp word [di]
00000602  FC                cld
00000603  9E                sahf
00000604  0408              add al,0x8
00000606  682800            push word 0x28
00000609  0000              add [bx+si],al
0000060B  E990FF            jmp word 0x59e
0000060E  FF                db 0xff
0000060F  FF                db 0xff
00000610  FF25              jmp word [di]
00000612  009F0408          add [bx+0x804],bl
00000616  683000            push word 0x30
00000619  0000              add [bx+si],al
0000061B  E980FF            jmp word 0x59e
0000061E  FF                db 0xff
0000061F  FF                db 0xff
00000620  FF25              jmp word [di]
00000622  049F              add al,0x9f
00000624  0408              add al,0x8
00000626  683800            push word 0x38
00000629  0000              add [bx+si],al
0000062B  E970FF            jmp word 0x59e
0000062E  FF                db 0xff
0000062F  FF                db 0xff
00000630  FF25              jmp word [di]
00000632  089F0408          or [bx+0x804],bl
00000636  684000            push word 0x40
00000639  0000              add [bx+si],al
0000063B  E960FF            jmp word 0x59e
0000063E  FF                db 0xff
0000063F  FF                db 0xff
00000640  FF25              jmp word [di]
00000642  0C9F              or al,0x9f
00000644  0408              add al,0x8
00000646  684800            push word 0x48
00000649  0000              add [bx+si],al
0000064B  E950FF            jmp word 0x59e
0000064E  FF                db 0xff
0000064F  FF                db 0xff
00000650  FF25              jmp word [di]
00000652  D89E0408          fcomp dword [bp+0x804]
00000656  6690              xchg eax,eax
00000658  0000              add [bx+si],al
0000065A  0000              add [bx+si],al
0000065C  0000              add [bx+si],al
0000065E  0000              add [bx+si],al
00000660  31ED              xor bp,bp
00000662  5E                pop si
00000663  89E1              mov cx,sp
00000665  83E4F0            and sp,byte -0x10
00000668  50                push ax
00000669  54                push sp
0000066A  52                push dx
0000066B  68908A            push word 0x8a90
0000066E  0408              add al,0x8
00000670  68308A            push word 0x8a30
00000673  0408              add al,0x8
00000675  51                push cx
00000676  56                push si
00000677  680488            push word 0x8804
0000067A  0408              add al,0x8
0000067C  E84FFF            call word 0x5ce
0000067F  FF                db 0xff
00000680  FFF4              push sp
00000682  6690              xchg eax,eax
00000684  6690              xchg eax,eax
00000686  6690              xchg eax,eax
00000688  6690              xchg eax,eax
0000068A  6690              xchg eax,eax
0000068C  6690              xchg eax,eax
0000068E  6690              xchg eax,eax
00000690  8B1C              mov bx,[si]
00000692  24C3              and al,0xc3
00000694  6690              xchg eax,eax
00000696  6690              xchg eax,eax
00000698  6690              xchg eax,eax
0000069A  6690              xchg eax,eax
0000069C  6690              xchg eax,eax
0000069E  6690              xchg eax,eax
000006A0  B81B9F            mov ax,0x9f1b
000006A3  0408              add al,0x8
000006A5  2D189F            sub ax,0x9f18
000006A8  0408              add al,0x8
000006AA  83F806            cmp ax,byte +0x6
000006AD  761A              jna 0x6c9
000006AF  B80000            mov ax,0x0
000006B2  0000              add [bx+si],al
000006B4  85C0              test ax,ax
000006B6  7411              jz 0x6c9
000006B8  55                push bp
000006B9  89E5              mov bp,sp
000006BB  83EC14            sub sp,byte +0x14
000006BE  68189F            push word 0x9f18
000006C1  0408              add al,0x8
000006C3  FFD0              call ax
000006C5  83C410            add sp,byte +0x10
000006C8  C9                leave
000006C9  F3C3              rep ret
000006CB  90                nop
000006CC  8D7426            lea si,[si+0x26]
000006CF  00B8189F          add [bx+si-0x60e8],bh
000006D3  0408              add al,0x8
000006D5  2D189F            sub ax,0x9f18
000006D8  0408              add al,0x8
000006DA  C1F802            sar ax,byte 0x2
000006DD  89C2              mov dx,ax
000006DF  C1EA1F            shr dx,byte 0x1f
000006E2  01D0              add ax,dx
000006E4  D1F8              sar ax,1
000006E6  741B              jz 0x703
000006E8  BA0000            mov dx,0x0
000006EB  0000              add [bx+si],al
000006ED  85D2              test dx,dx
000006EF  7412              jz 0x703
000006F1  55                push bp
000006F2  89E5              mov bp,sp
000006F4  83EC10            sub sp,byte +0x10
000006F7  50                push ax
000006F8  68189F            push word 0x9f18
000006FB  0408              add al,0x8
000006FD  FFD2              call dx
000006FF  83C410            add sp,byte +0x10
00000702  C9                leave
00000703  F3C3              rep ret
00000705  8D7426            lea si,[si+0x26]
00000708  008DBC27          add [di+0x27bc],cl
0000070C  0000              add [bx+si],al
0000070E  0000              add [bx+si],al
00000710  803D70            cmp byte [di],0x70
00000713  9F                lahf
00000714  0408              add al,0x8
00000716  007513            add [di+0x13],dh
00000719  55                push bp
0000071A  89E5              mov bp,sp
0000071C  83EC08            sub sp,byte +0x8
0000071F  E87CFF            call word 0x69e
00000722  FF                db 0xff
00000723  FFC6              inc si
00000725  05709F            add ax,0x9f70
00000728  0408              add al,0x8
0000072A  01C9              add cx,cx
0000072C  F3C3              rep ret
0000072E  6690              xchg eax,eax
00000730  B8D49D            mov ax,0x9dd4
00000733  0408              add al,0x8
00000735  8B10              mov dx,[bx+si]
00000737  85D2              test dx,dx
00000739  7505              jnz 0x740
0000073B  EB93              jmp short 0x6d0
0000073D  8D7600            lea si,[bp+0x0]
00000740  BA0000            mov dx,0x0
00000743  0000              add [bx+si],al
00000745  85D2              test dx,dx
00000747  74F2              jz 0x73b
00000749  55                push bp
0000074A  89E5              mov bp,sp
0000074C  83EC14            sub sp,byte +0x14
0000074F  50                push ax
00000750  FFD2              call dx
00000752  83C410            add sp,byte +0x10
00000755  C9                leave
00000756  E975FF            jmp word 0x6ce
00000759  FF                db 0xff
0000075A  FF5589            call word [di-0x77]
0000075D  E583              in ax,0x83
0000075F  EC                in al,dx
00000760  188B4510          sbb [bp+di+0x1045],cl
00000764  83C005            add ax,byte +0x5
00000767  83EC0C            sub sp,byte +0xc
0000076A  50                push ax
0000076B  E8B0FE            call word 0x61e
0000076E  FF                db 0xff
0000076F  FF83C410          inc word [bp+di+0x10c4]
00000773  8945F0            mov [di-0x10],ax
00000776  8B4510            mov ax,[di+0x10]
00000779  83E801            sub ax,byte +0x1
0000077C  8945EC            mov [di-0x14],ax
0000077F  C745F40000        mov word [di-0xc],0x0
00000784  0000              add [bx+si],al
00000786  8B45F4            mov ax,[di-0xc]
00000789  3B4510            cmp ax,[di+0x10]
0000078C  7D11              jnl 0x79f
0000078E  8B55F4            mov dx,[di-0xc]
00000791  8B45F0            mov ax,[di-0x10]
00000794  01D0              add ax,dx
00000796  C60090            mov byte [bx+si],0x90
00000799  8345F401          add word [di-0xc],byte +0x1
0000079D  EBE7              jmp short 0x786
0000079F  8B45F0            mov ax,[di-0x10]
000007A2  8945E8            mov [di-0x18],ax
000007A5  C745F40000        mov word [di-0xc],0x0
000007AA  0000              add [bx+si],al
000007AC  8B45F4            mov ax,[di-0xc]
000007AF  3B450C            cmp ax,[di+0xc]
000007B2  7D1F              jnl 0x7d3
000007B4  8B45F4            mov ax,[di-0xc]
000007B7  8D14              lea dx,[si]
000007B9  8500              test [bx+si],ax
000007BB  0000              add [bx+si],al
000007BD  008B45E8          add [bp+di-0x17bb],cl
000007C1  01D0              add ax,dx
000007C3  8B4D08            mov cx,[di+0x8]
000007C6  8B55EC            mov dx,[di-0x14]
000007C9  01CA              add dx,cx
000007CB  8910              mov [bx+si],dx
000007CD  8345F401          add word [di-0xc],byte +0x1
000007D1  EBD9              jmp short 0x7ac
000007D3  8B5510            mov dx,[di+0x10]
000007D6  8B45F0            mov ax,[di-0x10]
000007D9  01D0              add ax,dx
000007DB  8945E8            mov [di-0x18],ax
000007DE  8B45E8            mov ax,[di-0x18]
000007E1  8B5508            mov dx,[di+0x8]
000007E4  8910              mov [bx+si],dx
000007E6  8B55F0            mov dx,[di-0x10]
000007E9  8B45EC            mov ax,[di-0x14]
000007EC  01D0              add ax,dx
000007EE  C600CC            mov byte [bx+si],0xcc
000007F1  8B4510            mov ax,[di+0x10]
000007F4  8D5004            lea dx,[bx+si+0x4]
000007F7  8B45F0            mov ax,[di-0x10]
000007FA  01D0              add ax,dx
000007FC  C60000            mov byte [bx+si],0x0
000007FF  8B45F0            mov ax,[di-0x10]
00000802  C9                leave
00000803  C3                ret
00000804  8D4C24            lea cx,[si+0x24]
00000807  0483              add al,0x83
00000809  E4F0              in al,0xf0
0000080B  FF71FC            push word [bx+di-0x4]
0000080E  55                push bp
0000080F  89E5              mov bp,sp
00000811  53                push bx
00000812  51                push cx
00000813  83EC10            sub sp,byte +0x10
00000816  83EC0C            sub sp,byte +0xc
00000819  6A24              push byte +0x24
0000081B  E8F0FD            call word 0x60e
0000081E  FF                db 0xff
0000081F  FF83C410          inc word [bp+di+0x10c4]
00000823  89C3              mov bx,ax
00000825  83EC0C            sub sp,byte +0xc
00000828  53                push bx
00000829  E8B001            call word 0x9dc
0000082C  0000              add [bx+si],al
0000082E  83C410            add sp,byte +0x10
00000831  895DEC            mov [di-0x14],bx
00000834  83EC0C            sub sp,byte +0xc
00000837  6A24              push byte +0x24
00000839  E8D2FD            call word 0x60e
0000083C  FF                db 0xff
0000083D  FF83C410          inc word [bp+di+0x10c4]
00000841  89C3              mov bx,ax
00000843  83EC0C            sub sp,byte +0xc
00000846  53                push bx
00000847  E8B401            call word 0x9fe
0000084A  0000              add [bx+si],al
0000084C  83C410            add sp,byte +0x10
0000084F  895DF0            mov [di-0x10],bx
00000852  8B45EC            mov ax,[di-0x14]
00000855  83EC04            sub sp,byte +0x4
00000858  6A20              push byte +0x20
0000085A  6A04              push byte +0x4
0000085C  50                push ax
0000085D  E8F9FE            call word 0x759
00000860  FF                db 0xff
00000861  FF83C410          inc word [bp+di+0x10c4]
00000865  89C2              mov dx,ax
00000867  8B45EC            mov ax,[di-0x14]
0000086A  83EC08            sub sp,byte +0x8
0000086D  52                push dx
0000086E  50                push ax
0000086F  E8D000            call word 0x942
00000872  0000              add [bx+si],al
00000874  83C410            add sp,byte +0x10
00000877  8B45F0            mov ax,[di-0x10]
0000087A  83EC08            sub sp,byte +0x8
0000087D  68C78A            push word 0x8ac7
00000880  0408              add al,0x8
00000882  50                push ax
00000883  E8BC00            call word 0x942
00000886  0000              add [bx+si],al
00000888  83C410            add sp,byte +0x10
0000088B  8B45EC            mov ax,[di-0x14]
0000088E  8B00              mov ax,[bx+si]
00000890  8B00              mov ax,[bx+si]
00000892  8B55EC            mov dx,[di-0x14]
00000895  83EC0C            sub sp,byte +0xc
00000898  52                push dx
00000899  FFD0              call ax
0000089B  83C410            add sp,byte +0x10
0000089E  8B45F0            mov ax,[di-0x10]
000008A1  8B00              mov ax,[bx+si]
000008A3  8B00              mov ax,[bx+si]
000008A5  8B55F0            mov dx,[di-0x10]
000008A8  83EC0C            sub sp,byte +0xc
000008AB  52                push dx
000008AC  FFD0              call ax
000008AE  83C410            add sp,byte +0x10
000008B1  C745F40000        mov word [di-0xc],0x0
000008B6  0000              add [bx+si],al
000008B8  837DF401          cmp word [di-0xc],byte +0x1
000008BC  7F1B              jg 0x8d9
000008BE  8B45F4            mov ax,[di-0xc]
000008C1  8B4485            mov ax,[si-0x7b]
000008C4  EC                in al,dx
000008C5  83EC08            sub sp,byte +0x8
000008C8  6A24              push byte +0x24
000008CA  50                push ax
000008CB  E860FD            call word 0x62e
000008CE  FF                db 0xff
000008CF  FF83C410          inc word [bp+di+0x10c4]
000008D3  8345F401          add word [di-0xc],byte +0x1
000008D7  EBDF              jmp short 0x8b8
000008D9  B80000            mov ax,0x0
000008DC  0000              add [bx+si],al
000008DE  8D65F8            lea sp,[di-0x8]
000008E1  59                pop cx
000008E2  5B                pop bx
000008E3  5D                pop bp
000008E4  8D61FC            lea sp,[bx+di-0x4]
000008E7  C3                ret
000008E8  55                push bp
000008E9  89E5              mov bp,sp
000008EB  83EC08            sub sp,byte +0x8
000008EE  837D0801          cmp word [di+0x8],byte +0x1
000008F2  7533              jnz 0x927
000008F4  817D0CFFFF        cmp word [di+0xc],0xffff
000008F9  0000              add [bx+si],al
000008FB  752A              jnz 0x927
000008FD  83EC0C            sub sp,byte +0xc
00000900  68719F            push word 0x9f71
00000903  0408              add al,0x8
00000905  E8B6FC            call word 0x5be
00000908  FF                db 0xff
00000909  FF83C410          inc word [bp+di+0x10c4]
0000090D  83EC04            sub sp,byte +0x4
00000910  68149F            push word 0x9f14
00000913  0408              add al,0x8
00000915  68719F            push word 0x9f71
00000918  0408              add al,0x8
0000091A  68E085            push word 0x85e0
0000091D  0408              add al,0x8
0000091F  E88CFC            call word 0x5ae
00000922  FF                db 0xff
00000923  FF83C410          inc word [bp+di+0x10c4]
00000927  90                nop
00000928  C9                leave
00000929  C3                ret
0000092A  55                push bp
0000092B  89E5              mov bp,sp
0000092D  83EC08            sub sp,byte +0x8
00000930  83EC08            sub sp,byte +0x8
00000933  68FFFF            push word 0xffff
00000936  0000              add [bx+si],al
00000938  6A01              push byte +0x1
0000093A  E8A9FF            call word 0x8e6
0000093D  FF                db 0xff
0000093E  FF83C410          inc word [bp+di+0x10c4]
00000942  C9                leave
00000943  C3                ret
00000944  55                push bp
00000945  89E5              mov bp,sp
00000947  83EC08            sub sp,byte +0x8
0000094A  8B4508            mov ax,[di+0x8]
0000094D  83C004            add ax,byte +0x4
00000950  83EC08            sub sp,byte +0x8
00000953  FF750C            push word [di+0xc]
00000956  50                push ax
00000957  E894FC            call word 0x5ee
0000095A  FF                db 0xff
0000095B  FF83C410          inc word [bp+di+0x10c4]
0000095F  90                nop
00000960  C9                leave
00000961  C3                ret
00000962  55                push bp
00000963  89E5              mov bp,sp
00000965  83EC08            sub sp,byte +0x8
00000968  8B4508            mov ax,[di+0x8]
0000096B  83C004            add ax,byte +0x4
0000096E  83EC0C            sub sp,byte +0xc
00000971  50                push ax
00000972  E8C9FC            call word 0x63e
00000975  FF                db 0xff
00000976  FF83C410          inc word [bp+di+0x10c4]
0000097A  90                nop
0000097B  C9                leave
0000097C  C3                ret
0000097D  90                nop
0000097E  55                push bp
0000097F  89E5              mov bp,sp
00000981  83EC08            sub sp,byte +0x8
00000984  83EC0C            sub sp,byte +0xc
00000987  68B18A            push word 0x8ab1
0000098A  0408              add al,0x8
0000098C  E86FFC            call word 0x5fe
0000098F  FF                db 0xff
00000990  FF83C410          inc word [bp+di+0x10c4]
00000994  8B4508            mov ax,[di+0x8]
00000997  83EC0C            sub sp,byte +0xc
0000099A  50                push ax
0000099B  E8C2FF            call word 0x960
0000099E  FF                db 0xff
0000099F  FF83C410          inc word [bp+di+0x10c4]
000009A3  90                nop
000009A4  C9                leave
000009A5  C3                ret
000009A6  55                push bp
000009A7  89E5              mov bp,sp
000009A9  83EC08            sub sp,byte +0x8
000009AC  83EC0C            sub sp,byte +0xc
000009AF  68BC8A            push word 0x8abc
000009B2  0408              add al,0x8
000009B4  E847FC            call word 0x5fe
000009B7  FF                db 0xff
000009B8  FF83C410          inc word [bp+di+0x10c4]
000009BC  8B4508            mov ax,[di+0x8]
000009BF  83EC0C            sub sp,byte +0xc
000009C2  50                push ax
000009C3  E89AFF            call word 0x960
000009C6  FF                db 0xff
000009C7  FF83C410          inc word [bp+di+0x10c4]
000009CB  90                nop
000009CC  C9                leave
000009CD  C3                ret
000009CE  55                push bp
000009CF  89E5              mov bp,sp
000009D1  BAF08A            mov dx,0x8af0
000009D4  0408              add al,0x8
000009D6  8B4508            mov ax,[di+0x8]
000009D9  8910              mov [bx+si],dx
000009DB  90                nop
000009DC  5D                pop bp
000009DD  C3                ret
000009DE  55                push bp
000009DF  89E5              mov bp,sp
000009E1  83EC08            sub sp,byte +0x8
000009E4  8B4508            mov ax,[di+0x8]
000009E7  83EC0C            sub sp,byte +0xc
000009EA  50                push ax
000009EB  E8DEFF            call word 0x9cc
000009EE  FF                db 0xff
000009EF  FF83C410          inc word [bp+di+0x10c4]
000009F3  BAE48A            mov dx,0x8ae4
000009F6  0408              add al,0x8
000009F8  8B4508            mov ax,[di+0x8]
000009FB  8910              mov [bx+si],dx
000009FD  90                nop
000009FE  C9                leave
000009FF  C3                ret
00000A00  55                push bp
00000A01  89E5              mov bp,sp
00000A03  83EC08            sub sp,byte +0x8
00000A06  8B4508            mov ax,[di+0x8]
00000A09  83EC0C            sub sp,byte +0xc
00000A0C  50                push ax
00000A0D  E8BCFF            call word 0x9cc
00000A10  FF                db 0xff
00000A11  FF83C410          inc word [bp+di+0x10c4]
00000A15  BAD88A            mov dx,0x8ad8
00000A18  0408              add al,0x8
00000A1A  8B4508            mov ax,[di+0x8]
00000A1D  8910              mov [bx+si],dx
00000A1F  90                nop
00000A20  C9                leave
00000A21  C3                ret
00000A22  6690              xchg eax,eax
00000A24  6690              xchg eax,eax
00000A26  6690              xchg eax,eax
00000A28  6690              xchg eax,eax
00000A2A  6690              xchg eax,eax
00000A2C  6690              xchg eax,eax
00000A2E  6690              xchg eax,eax
00000A30  55                push bp
00000A31  57                push di
00000A32  56                push si
00000A33  53                push bx
00000A34  E857FC            call word 0x68e
00000A37  FF                db 0xff
00000A38  FF81C3A3          inc word [bx+di-0x5c3d]
00000A3C  1400              adc al,0x0
00000A3E  0083EC0C          add [bp+di+0xcec],al
00000A42  8B6C24            mov bp,[si+0x24]
00000A45  208DB3F4          and [di-0xb4d],cl
00000A49  FE                db 0xfe
00000A4A  FF                db 0xff
00000A4B  FF                db 0xff
00000A4C  E823FB            call word 0x572
00000A4F  FF                db 0xff
00000A50  FF8D83EC          dec word [di-0x137d]
00000A54  FE                db 0xfe
00000A55  FF                db 0xff
00000A56  FF29              jmp word far [bx+di]
00000A58  C6C1FE            mov cl,0xfe
00000A5B  0285F674          add al,[di+0x74f6]
00000A5F  2531FF            and ax,0xff31
00000A62  8DB60000          lea si,[bp+0x0]
00000A66  0000              add [bx+si],al
00000A68  83EC04            sub sp,byte +0x4
00000A6B  FF7424            push word [si+0x24]
00000A6E  2CFF              sub al,0xff
00000A70  7424              jz 0xa96
00000A72  2C55              sub al,0x55
00000A74  FF94BBEC          call word [si-0x1345]
00000A78  FE                db 0xfe
00000A79  FF                db 0xff
00000A7A  FF83C701          inc word [bp+di+0x1c7]
00000A7E  83C410            add sp,byte +0x10
00000A81  39FE              cmp si,di
00000A83  75E3              jnz 0xa68
00000A85  83C40C            add sp,byte +0xc
00000A88  5B                pop bx
00000A89  5E                pop si
00000A8A  5F                pop di
00000A8B  5D                pop bp
00000A8C  C3                ret
00000A8D  8D7600            lea si,[bp+0x0]
00000A90  F3C3              rep ret
00000A92  0000              add [bx+si],al
00000A94  53                push bx
00000A95  83EC08            sub sp,byte +0x8
00000A98  E8F3FB            call word 0x68e
00000A9B  FF                db 0xff
00000A9C  FF81C33F          inc word [bx+di+0x3fc3]
00000AA0  1400              adc al,0x0
00000AA2  0083C408          add [bp+di+0x8c4],al
00000AA6  5B                pop bx
00000AA7  C3                ret
00000AA8  0300              add ax,[bx+si]
00000AAA  0000              add [bx+si],al
00000AAC  0100              add [bx+si],ax
00000AAE  0200              add al,[bx+si]
00000AB0  004D79            add [di+0x79],cl
00000AB3  43                inc bx
00000AB4  6C                insb
00000AB5  61                popaw
00000AB6  7373              jnc 0xb2b
00000AB8  313A              xor [bp+si],di
00000ABA  2000              and [bx+si],al
00000ABC  4D                dec bp
00000ABD  7943              jns 0xb02
00000ABF  6C                insb
00000AC0  61                popaw
00000AC1  7373              jnc 0xb36
00000AC3  323A              xor bh,[bp+si]
00000AC5  2000              and [bx+si],al
00000AC7  7374              jnc 0xb3d
00000AC9  7269              jc 0xb34
00000ACB  6E                outsb
00000ACC  670000            add [eax],al
00000ACF  0000              add [bx+si],al
00000AD1  0000              add [bx+si],al
00000AD3  00F4              add ah,dh
00000AD5  8A04              mov al,[si]
00000AD7  08A68904          or [bp+0x489],ah
00000ADB  0800              or [bx+si],al
00000ADD  0000              add [bx+si],al
00000ADF  000C              add [si],cl
00000AE1  8B04              mov ax,[si]
00000AE3  087E89            or [bp-0x77],bh
00000AE6  0408              add al,0x8
00000AE8  0000              add [bx+si],al
00000AEA  0000              add [bx+si],al
00000AEC  248B              and al,0x8b
00000AEE  0408              add al,0x8
00000AF0  62890408          bound cx,[bx+di+0x804]
00000AF4  4C                dec sp
00000AF5  9F                lahf
00000AF6  0408              add al,0x8
00000AF8  008B0408          add [bp+di+0x804],cl
00000AFC  248B              and al,0x8b
00000AFE  0408              add al,0x8
00000B00  384D79            cmp [di+0x79],cl
00000B03  43                inc bx
00000B04  6C                insb
00000B05  61                popaw
00000B06  7373              jnc 0xb7b
00000B08  3200              xor al,[bx+si]
00000B0A  0000              add [bx+si],al
00000B0C  4C                dec sp
00000B0D  9F                lahf
00000B0E  0408              add al,0x8
00000B10  188B0408          sbb [bp+di+0x804],cl
00000B14  248B              and al,0x8b
00000B16  0408              add al,0x8
00000B18  384D79            cmp [di+0x79],cl
00000B1B  43                inc bx
00000B1C  6C                insb
00000B1D  61                popaw
00000B1E  7373              jnc 0xb93
00000B20  3100              xor [bx+si],ax
00000B22  0000              add [bx+si],al
00000B24  209F0408          and [bx+0x804],bl
00000B28  2C8B              sub al,0x8b
00000B2A  0408              add al,0x8
00000B2C  394261            cmp [bp+si+0x61],ax
00000B2F  7365              jnc 0xb96
00000B31  43                inc bx
00000B32  6C                insb
00000B33  61                popaw
00000B34  7373              jnc 0xba9
00000B36  0000              add [bx+si],al
00000B38  011B              add [bp+di],bx
00000B3A  033B              add di,[bp+di]
00000B3C  7800              js 0xb3e
00000B3E  0000              add [bx+si],al
00000B40  0E                push cs
00000B41  0000              add [bx+si],al
00000B43  0068FA            add [bx+si-0x6],ch
00000B46  FF                db 0xff
00000B47  FF940000          call word [si+0x0]
00000B4B  0023              add [bp+di],ah
00000B4D  FC                cld
00000B4E  FF                db 0xff
00000B4F  FF                db 0xff
00000B50  3801              cmp [bx+di],al
00000B52  0000              add [bx+si],al
00000B54  CC                int3
00000B55  FC                cld
00000B56  FF                db 0xff
00000B57  FF                db 0xff
00000B58  B80100            mov ax,0x1
00000B5B  00B0FDFF          add [bx+si-0x3],dh
00000B5F  FF                db 0xff
00000B60  EC                in al,dx
00000B61  0100              add [bx+si],ax
00000B63  00F2              add dl,dh
00000B65  FD                std
00000B66  FF                db 0xff
00000B67  FF0C              dec word [si]
00000B69  0200              add al,[bx+si]
00000B6B  000C              add [si],cl
00000B6D  FE                db 0xfe
00000B6E  FF                db 0xff
00000B6F  FF                db 0xff
00000B70  B80000            mov ax,0x0
00000B73  002A              add [bp+si],ch
00000B75  FE                db 0xfe
00000B76  FF                db 0xff
00000B77  FF                db 0xff
00000B78  D800              fadd dword [bx+si]
00000B7A  0000              add [bx+si],al
00000B7C  46                inc si
00000B7D  FE                db 0xfe
00000B7E  FF                db 0xff
00000B7F  FF                db 0xff
00000B80  F8                clc
00000B81  0000              add [bx+si],al
00000B83  006EFE            add [bp-0x2],ch
00000B86  FF                db 0xff
00000B87  FF18              call word far [bx+si]
00000B89  0100              add [bx+si],ax
00000B8B  0096FEFF          add [bp-0x2],dl
00000B8F  FF5801            call word far [bx+si+0x1]
00000B92  0000              add [bx+si],al
00000B94  A6                cmpsb
00000B95  FE                db 0xfe
00000B96  FF                db 0xff
00000B97  FF                db 0xff
00000B98  7801              js 0xb9b
00000B9A  0000              add [bx+si],al
00000B9C  C8FEFFFF          enter 0xfffe,0xff
00000BA0  98                cbw
00000BA1  0100              add [bx+si],ax
00000BA3  00F8              add al,bh
00000BA5  FE                db 0xfe
00000BA6  FF                db 0xff
00000BA7  FF2C              jmp word far [si]
00000BA9  0200              add al,[bx+si]
00000BAB  0058FF            add [bx+si-0x1],bl
00000BAE  FF                db 0xff
00000BAF  FF                db 0xff
00000BB0  7802              js 0xbb4
00000BB2  0000              add [bx+si],al
00000BB4  1400              adc al,0x0
00000BB6  0000              add [bx+si],al
00000BB8  0000              add [bx+si],al
00000BBA  0000              add [bx+si],al
00000BBC  017A52            add [bp+si+0x52],di
00000BBF  0001              add [bx+di],al
00000BC1  7C08              jl 0xbcb
00000BC3  011B              add [bp+di],bx
00000BC5  0C04              or al,0x4
00000BC7  0488              add al,0x88
00000BC9  0100              add [bx+si],ax
00000BCB  0020              add [bx+si],ah
00000BCD  0000              add [bx+si],al
00000BCF  001C              add [si],bl
00000BD1  0000              add [bx+si],al
00000BD3  00CC              add ah,cl
00000BD5  F9                stc
00000BD6  FF                db 0xff
00000BD7  FFB00000          push word [bx+si+0x0]
00000BDB  0000              add [bx+si],al
00000BDD  0E                push cs
00000BDE  08460E            or [bp+0xe],al
00000BE1  0C4A              or al,0x4a
00000BE3  0F0B              ud2
00000BE5  7404              jz 0xbeb
00000BE7  7800              js 0xbe9
00000BE9  3F                aas
00000BEA  1A3B              sbb bh,[bp+di]
00000BEC  2A32              sub dh,[bp+si]
00000BEE  2422              and al,0x22
00000BF0  1C00              sbb al,0x0
00000BF2  0000              add [bx+si],al
00000BF4  40                inc ax
00000BF5  0000              add [bx+si],al
00000BF7  004CFD            add [si-0x3],cl
00000BFA  FF                db 0xff
00000BFB  FF1E0000          call word far [0x0]
00000BFF  0000              add [bx+si],al
00000C01  41                inc cx
00000C02  0E                push cs
00000C03  08850242          or [di+0x4202],al
00000C07  0D055A            or ax,0x5a05
00000C0A  C50C              lds cx,[si]
00000C0C  0404              add al,0x4
00000C0E  0000              add [bx+si],al
00000C10  1C00              sbb al,0x0
00000C12  0000              add [bx+si],al
00000C14  60                pushaw
00000C15  0000              add [bx+si],al
00000C17  004AFD            add [bp+si-0x3],cl
00000C1A  FF                db 0xff
00000C1B  FF1B              call word far [bp+di]
00000C1D  0000              add [bx+si],al
00000C1F  0000              add [bx+si],al
00000C21  41                inc cx
00000C22  0E                push cs
00000C23  08850242          or [di+0x4202],al
00000C27  0D0557            or ax,0x5705
00000C2A  C50C              lds cx,[si]
00000C2C  0404              add al,0x4
00000C2E  0000              add [bx+si],al
00000C30  1C00              sbb al,0x0
00000C32  0000              add [bx+si],al
00000C34  800000            add byte [bx+si],0x0
00000C37  0046FD            add [bp-0x3],al
00000C3A  FF                db 0xff
00000C3B  FF28              jmp word far [bx+si]
00000C3D  0000              add [bx+si],al
00000C3F  0000              add [bx+si],al
00000C41  41                inc cx
00000C42  0E                push cs
00000C43  08850242          or [di+0x4202],al
00000C47  0D0564            or ax,0x6405
00000C4A  C50C              lds cx,[si]
00000C4C  0404              add al,0x4
00000C4E  0000              add [bx+si],al
00000C50  1C00              sbb al,0x0
00000C52  0000              add [bx+si],al
00000C54  A00000            mov al,[0x0]
00000C57  004EFD            add [bp-0x3],cl
00000C5A  FF                db 0xff
00000C5B  FF28              jmp word far [bx+si]
00000C5D  0000              add [bx+si],al
00000C5F  0000              add [bx+si],al
00000C61  41                inc cx
00000C62  0E                push cs
00000C63  08850242          or [di+0x4202],al
00000C67  0D0564            or ax,0x6405
00000C6A  C50C              lds cx,[si]
00000C6C  0404              add al,0x4
00000C6E  0000              add [bx+si],al
00000C70  1C00              sbb al,0x0
00000C72  0000              add [bx+si],al
00000C74  C00000            rol byte [bx+si],byte 0x0
00000C77  00E3              add bl,ah
00000C79  FA                cli
00000C7A  FF                db 0xff
00000C7B  FFA90000          jmp word far [bx+di+0x0]
00000C7F  0000              add [bx+si],al
00000C81  41                inc cx
00000C82  0E                push cs
00000C83  08850242          or [di+0x4202],al
00000C87  0D0502            or ax,0x205
00000C8A  A5                movsw
00000C8B  C50C              lds cx,[si]
00000C8D  0404              add al,0x4
00000C8F  001C              add [si],bl
00000C91  0000              add [bx+si],al
00000C93  00E0              add al,ah
00000C95  0000              add [bx+si],al
00000C97  0036FDFF          add [0xfffd],dh
00000C9B  FF10              call word [bx+si]
00000C9D  0000              add [bx+si],al
00000C9F  0000              add [bx+si],al
00000CA1  41                inc cx
00000CA2  0E                push cs
00000CA3  08850242          or [di+0x4202],al
00000CA7  0D054C            or ax,0x4c05
00000CAA  C50C              lds cx,[si]
00000CAC  0404              add al,0x4
00000CAE  0000              add [bx+si],al
00000CB0  1C00              sbb al,0x0
00000CB2  0000              add [bx+si],al
00000CB4  0001              add [bx+di],al
00000CB6  0000              add [bx+si],al
00000CB8  26FD              es std
00000CBA  FF                db 0xff
00000CBB  FF22              jmp word [bp+si]
00000CBD  0000              add [bx+si],al
00000CBF  0000              add [bx+si],al
00000CC1  41                inc cx
00000CC2  0E                push cs
00000CC3  08850242          or [di+0x4202],al
00000CC7  0D055E            or ax,0x5e05
00000CCA  C50C              lds cx,[si]
00000CCC  0404              add al,0x4
00000CCE  0000              add [bx+si],al
00000CD0  1C00              sbb al,0x0
00000CD2  0000              add [bx+si],al
00000CD4  2001              and [bx+di],al
00000CD6  0000              add [bx+si],al
00000CD8  28FD              sub ch,bh
00000CDA  FF                db 0xff
00000CDB  FF22              jmp word [bp+si]
00000CDD  0000              add [bx+si],al
00000CDF  0000              add [bx+si],al
00000CE1  41                inc cx
00000CE2  0E                push cs
00000CE3  08850242          or [di+0x4202],al
00000CE7  0D055E            or ax,0x5e05
00000CEA  C50C              lds cx,[si]
00000CEC  0404              add al,0x4
00000CEE  0000              add [bx+si],al
00000CF0  3000              xor [bx+si],al
00000CF2  0000              add [bx+si],al
00000CF4  40                inc ax
00000CF5  0100              add [bx+si],ax
00000CF7  000C              add [si],cl
00000CF9  FB                sti
00000CFA  FF                db 0xff
00000CFB  FFE4              jmp sp
00000CFD  0000              add [bx+si],al
00000CFF  0000              add [bx+si],al
00000D01  44                inc sp
00000D02  0C01              or al,0x1
00000D04  004710            add [bx+0x10],al
00000D07  050275            add ax,0x7502
00000D0A  00440F            add [si+0xf],al
00000D0D  037578            add si,[di+0x78]
00000D10  06                push es
00000D11  1003              adc [bp+di],al
00000D13  02757C            add dh,[di+0x7c]
00000D16  02CF              add cl,bh
00000D18  C10C01            ror word [si],byte 0x1
00000D1B  0041C3            add [bx+di-0x3d],al
00000D1E  41                inc cx
00000D1F  C5430C            lds ax,[bp+di+0xc]
00000D22  0404              add al,0x4
00000D24  1C00              sbb al,0x0
00000D26  0000              add [bx+si],al
00000D28  7401              jz 0xd2b
00000D2A  0000              add [bx+si],al
00000D2C  BCFBFF            mov sp,0xfffb
00000D2F  FF4200            inc word [bp+si+0x0]
00000D32  0000              add [bx+si],al
00000D34  00410E            add [bx+di+0xe],al
00000D37  08850242          or [di+0x4202],al
00000D3B  0D057E            or ax,0x7e05
00000D3E  C50C              lds cx,[si]
00000D40  0404              add al,0x4
00000D42  0000              add [bx+si],al
00000D44  1C00              sbb al,0x0
00000D46  0000              add [bx+si],al
00000D48  94                xchg ax,sp
00000D49  0100              add [bx+si],ax
00000D4B  00DE              add dh,bl
00000D4D  FB                sti
00000D4E  FF                db 0xff
00000D4F  FF1A              call word far [bp+si]
00000D51  0000              add [bx+si],al
00000D53  0000              add [bx+si],al
00000D55  41                inc cx
00000D56  0E                push cs
00000D57  08850242          or [di+0x4202],al
00000D5B  0D0556            or ax,0x5605
00000D5E  C50C              lds cx,[si]
00000D60  0404              add al,0x4
00000D62  0000              add [bx+si],al
00000D64  48                dec ax
00000D65  0000              add [bx+si],al
00000D67  00B40100          add [si+0x1],dh
00000D6B  00C4              add ah,al
00000D6D  FC                cld
00000D6E  FF                db 0xff
00000D6F  FF5D00            call word far [di+0x0]
00000D72  0000              add [bx+si],al
00000D74  00410E            add [bx+di+0xe],al
00000D77  08850241          or [di+0x4102],al
00000D7B  0E                push cs
00000D7C  0C87              or al,0x87
00000D7E  03410E            add ax,[bx+di+0xe]
00000D81  10860441          adc [bp+0x4104],al
00000D85  0E                push cs
00000D86  1483              adc al,0x83
00000D88  054E0E            add ax,0xe4e
00000D8B  20690E            and [bx+di+0xe],ch
00000D8E  2444              and al,0x44
00000D90  0E                push cs
00000D91  28440E            sub [si+0xe],al
00000D94  2C41              sub al,0x41
00000D96  0E                push cs
00000D97  304D0E            xor [di+0xe],cl
00000D9A  20470E            and [bx+0xe],al
00000D9D  1441              adc al,0x41
00000D9F  C3                ret
00000DA0  0E                push cs
00000DA1  1041C6            adc [bx+di-0x3a],al
00000DA4  0E                push cs
00000DA5  0C41              or al,0x41
00000DA7  C7                db 0xc7
00000DA8  0E                push cs
00000DA9  0841C5            or [bx+di-0x3b],al
00000DAC  0E                push cs
00000DAD  0400              add al,0x0
00000DAF  0010              add [bx+si],dl
00000DB1  0000              add [bx+si],al
00000DB3  0000              add [bx+si],al
00000DB5  0200              add al,[bx+si]
00000DB7  00D8              add al,bl
00000DB9  FC                cld
00000DBA  FF                db 0xff
00000DBB  FF02              inc word [bp+si]
00000DBD  0000              add [bx+si],al
00000DBF  0000              add [bx+si],al
00000DC1  0000              add [bx+si],al
00000DC3  0000              add [bx+si],al
00000DC5  0000              add [bx+si],al
00000DC7  0030              add [bx+si],dh
00000DC9  8704              xchg ax,[si]
00000DCB  082A              or [bp+si],ch
00000DCD  8904              mov [si],ax
00000DCF  0810              or [bx+si],dl
00000DD1  8704              xchg ax,[si]
00000DD3  0800              or [bx+si],al
00000DD5  0000              add [bx+si],al
00000DD7  0001              add [bx+di],al
00000DD9  0000              add [bx+si],al
00000DDB  0001              add [bx+di],al
00000DDD  0000              add [bx+si],al
00000DDF  0001              add [bx+di],al
00000DE1  0000              add [bx+si],al
00000DE3  00F6              add dh,dh
00000DE5  0000              add [bx+si],al
00000DE7  0001              add [bx+di],al
00000DE9  0000              add [bx+si],al
00000DEB  0000              add [bx+si],al
00000DED  0100              add [bx+si],ax
00000DEF  0001              add [bx+di],al
00000DF1  0000              add [bx+si],al
00000DF3  000E0100          add [0x1],cl
00000DF7  000C              add [si],cl
00000DF9  0000              add [bx+si],al
00000DFB  007485            add [si-0x7b],dh
00000DFE  0408              add al,0x8
00000E00  0D0000            or ax,0x0
00000E03  00948A04          add [si+0x48a],dl
00000E07  0819              or [bx+di],bl
00000E09  0000              add [bx+si],al
00000E0B  00C8              add al,cl
00000E0D  9D                popfw
00000E0E  0408              add al,0x8
00000E10  1B00              sbb ax,[bx+si]
00000E12  0000              add [bx+si],al
00000E14  0800              or [bx+si],al
00000E16  0000              add [bx+si],al
00000E18  1A00              sbb al,[bx+si]
00000E1A  0000              add [bx+si],al
00000E1C  D09D0408          rcr byte [di+0x804],1
00000E20  1C00              sbb al,0x0
00000E22  0000              add [bx+si],al
00000E24  0400              add al,0x0
00000E26  0000              add [bx+si],al
00000E28  F5                cmc
00000E29  FE                db 0xfe
00000E2A  FF6F8C            jmp word far [bx-0x74]
00000E2D  81040805          add word [si],0x508
00000E31  0000              add [bx+si],al
00000E33  00DC              add ah,bl
00000E35  82                db 0x82
00000E36  0408              add al,0x8
00000E38  06                push es
00000E39  0000              add [bx+si],al
00000E3B  00BC8104          add [si+0x481],bh
00000E3F  080A              or [bp+si],cl
00000E41  0000              add [bx+si],al
00000E43  009A0100          add [bp+si+0x1],bl
00000E47  000B              add [bp+di],cl
00000E49  0000              add [bx+si],al
00000E4B  0010              add [bx+si],dl
00000E4D  0000              add [bx+si],al
00000E4F  0015              add [di],dl
00000E51  0000              add [bx+si],al
00000E53  0000              add [bx+si],al
00000E55  0000              add [bx+si],al
00000E57  0003              add [bp+di],al
00000E59  0000              add [bx+si],al
00000E5B  00DC              add ah,bl
00000E5D  9E                sahf
00000E5E  0408              add al,0x8
00000E60  0200              add al,[bx+si]
00000E62  0000              add [bx+si],al
00000E64  50                push ax
00000E65  0000              add [bx+si],al
00000E67  0014              add [si],dl
00000E69  0000              add [bx+si],al
00000E6B  0011              add [bx+di],dl
00000E6D  0000              add [bx+si],al
00000E6F  0017              add [bx],dl
00000E71  0000              add [bx+si],al
00000E73  0024              add [si],ah
00000E75  8504              test [si],ax
00000E77  0811              or [bx+di],dl
00000E79  0000              add [bx+si],al
00000E7B  000C              add [si],cl
00000E7D  8504              test [si],ax
00000E7F  0812              or [bp+si],dl
00000E81  0000              add [bx+si],al
00000E83  0018              add [bx+si],bl
00000E85  0000              add [bx+si],al
00000E87  0013              add [bp+di],dl
00000E89  0000              add [bx+si],al
00000E8B  0008              add [bx+si],cl
00000E8D  0000              add [bx+si],al
00000E8F  00FE              add dh,bh
00000E91  FF                db 0xff
00000E92  FF6F9C            jmp word far [bx-0x64]
00000E95  8404              test [si],al
00000E97  08FF              or bh,bh
00000E99  FF                db 0xff
00000E9A  FF6F02            jmp word far [bx+0x2]
00000E9D  0000              add [bx+si],al
00000E9F  00F0              add al,dh
00000EA1  FF                db 0xff
00000EA2  FF6F76            jmp word far [bx+0x76]
00000EA5  8404              test [si],al
00000EA7  0800              or [bx+si],al
00000EA9  0000              add [bx+si],al
00000EAB  0000              add [bx+si],al
00000EAD  0000              add [bx+si],al
00000EAF  0000              add [bx+si],al
00000EB1  0000              add [bx+si],al
00000EB3  0000              add [bx+si],al
00000EB5  0000              add [bx+si],al
00000EB7  0000              add [bx+si],al
00000EB9  0000              add [bx+si],al
00000EBB  0000              add [bx+si],al
00000EBD  0000              add [bx+si],al
00000EBF  0000              add [bx+si],al
00000EC1  0000              add [bx+si],al
00000EC3  0000              add [bx+si],al
00000EC5  0000              add [bx+si],al
00000EC7  0000              add [bx+si],al
00000EC9  0000              add [bx+si],al
00000ECB  0000              add [bx+si],al
00000ECD  0000              add [bx+si],al
00000ECF  0000              add [bx+si],al
00000ED1  0000              add [bx+si],al
00000ED3  0000              add [bx+si],al
00000ED5  0000              add [bx+si],al
00000ED7  0000              add [bx+si],al
00000ED9  0000              add [bx+si],al
00000EDB  00D8              add al,bl
00000EDD  9D                popfw
00000EDE  0408              add al,0x8
00000EE0  0000              add [bx+si],al
00000EE2  0000              add [bx+si],al
00000EE4  0000              add [bx+si],al
00000EE6  0000              add [bx+si],al
00000EE8  B685              mov dh,0x85
00000EEA  0408              add al,0x8
00000EEC  C6850408D6        mov byte [di+0x804],0xd6
00000EF1  8504              test [si],ax
00000EF3  08E6              or dh,ah
00000EF5  8504              test [si],ax
00000EF7  08F6              or dh,dh
00000EF9  8504              test [si],ax
00000EFB  08068604          or [0x486],al
00000EFF  08168604          or [0x486],dl
00000F03  08268604          or [0x486],ah
00000F07  08368604          or [0x486],dh
00000F0B  084686            or [bp-0x7a],al
00000F0E  0408              add al,0x8
00000F10  0000              add [bx+si],al
00000F12  0000              add [bx+si],al
00000F14  0000              add [bx+si],al
00000F16  0000              add [bx+si],al
00000F18  47                inc di
00000F19  43                inc bx
00000F1A  43                inc bx
00000F1B  3A20              cmp ah,[bx+si]
00000F1D  28474E            sub [bx+0x4e],al
00000F20  55                push bp
00000F21  2920              sub [bx+si],sp
00000F23  362E312E3120      xor [cs:0x2031],bp
00000F29  3230              xor dh,[bx+si]
00000F2B  31363035          xor [0x3530],si
00000F2F  3031              xor [bx+di],dh
00000F31  0000              add [bx+si],al
00000F33  0000              add [bx+si],al
00000F35  0000              add [bx+si],al
00000F37  0000              add [bx+si],al
00000F39  0000              add [bx+si],al
00000F3B  0000              add [bx+si],al
00000F3D  0000              add [bx+si],al
00000F3F  0000              add [bx+si],al
00000F41  0000              add [bx+si],al
00000F43  0000              add [bx+si],al
00000F45  0000              add [bx+si],al
00000F47  0034              add [si],dh
00000F49  81040800          add word [si],0x8
00000F4D  0000              add [bx+si],al
00000F4F  0003              add [bp+di],al
00000F51  0001              add [bx+di],al
00000F53  0000              add [bx+si],al
00000F55  0000              add [bx+si],al
00000F57  004881            add [bx+si-0x7f],cl
00000F5A  0408              add al,0x8
00000F5C  0000              add [bx+si],al
00000F5E  0000              add [bx+si],al
00000F60  0300              add ax,[bx+si]
00000F62  0200              add al,[bx+si]
00000F64  0000              add [bx+si],al
00000F66  0000              add [bx+si],al
00000F68  688104            push word 0x481
00000F6B  0800              or [bx+si],al
00000F6D  0000              add [bx+si],al
00000F6F  0003              add [bp+di],al
00000F71  0003              add [bp+di],al
00000F73  0000              add [bx+si],al
00000F75  0000              add [bx+si],al
00000F77  008C8104          add [si+0x481],cl
00000F7B  0800              or [bx+si],al
00000F7D  0000              add [bx+si],al
00000F7F  0003              add [bp+di],al
00000F81  0004              add [si],al
00000F83  0000              add [bx+si],al
00000F85  0000              add [bx+si],al
00000F87  00BC8104          add [si+0x481],bh
00000F8B  0800              or [bx+si],al
00000F8D  0000              add [bx+si],al
00000F8F  0003              add [bp+di],al
00000F91  0005              add [di],al
00000F93  0000              add [bx+si],al
00000F95  0000              add [bx+si],al
00000F97  00DC              add ah,bl
00000F99  82                db 0x82
00000F9A  0408              add al,0x8
00000F9C  0000              add [bx+si],al
00000F9E  0000              add [bx+si],al
00000FA0  0300              add ax,[bx+si]
00000FA2  06                push es
00000FA3  0000              add [bx+si],al
00000FA5  0000              add [bx+si],al
00000FA7  007684            add [bp-0x7c],dh
00000FAA  0408              add al,0x8
00000FAC  0000              add [bx+si],al
00000FAE  0000              add [bx+si],al
00000FB0  0300              add ax,[bx+si]
00000FB2  07                pop es
00000FB3  0000              add [bx+si],al
00000FB5  0000              add [bx+si],al
00000FB7  009C8404          add [si+0x484],bl
00000FBB  0800              or [bx+si],al
00000FBD  0000              add [bx+si],al
00000FBF  0003              add [bp+di],al
00000FC1  0008              add [bx+si],cl
00000FC3  0000              add [bx+si],al
00000FC5  0000              add [bx+si],al
00000FC7  000C              add [si],cl
00000FC9  8504              test [si],ax
00000FCB  0800              or [bx+si],al
00000FCD  0000              add [bx+si],al
00000FCF  0003              add [bp+di],al
00000FD1  0009              add [bx+di],cl
00000FD3  0000              add [bx+si],al
00000FD5  0000              add [bx+si],al
00000FD7  0024              add [si],ah
00000FD9  8504              test [si],ax
00000FDB  0800              or [bx+si],al
00000FDD  0000              add [bx+si],al
00000FDF  0003              add [bp+di],al
00000FE1  000A              add [bp+si],cl
00000FE3  0000              add [bx+si],al
00000FE5  0000              add [bx+si],al
00000FE7  007485            add [si-0x7b],dh
00000FEA  0408              add al,0x8
00000FEC  0000              add [bx+si],al
00000FEE  0000              add [bx+si],al
00000FF0  0300              add ax,[bx+si]
00000FF2  0B00              or ax,[bx+si]
00000FF4  0000              add [bx+si],al
00000FF6  0000              add [bx+si],al
00000FF8  A08504            mov al,[0x485]
00000FFB  0800              or [bx+si],al
00000FFD  0000              add [bx+si],al
00000FFF  0003              add [bp+di],al
00001001  000C              add [si],cl
00001003  0000              add [bx+si],al
00001005  0000              add [bx+si],al
00001007  005086            add [bx+si-0x7a],dl
0000100A  0408              add al,0x8
0000100C  0000              add [bx+si],al
0000100E  0000              add [bx+si],al
00001010  0300              add ax,[bx+si]
00001012  0D0000            or ax,0x0
00001015  0000              add [bx+si],al
00001017  006086            add [bx+si-0x7a],ah
0000101A  0408              add al,0x8
0000101C  0000              add [bx+si],al
0000101E  0000              add [bx+si],al
00001020  0300              add ax,[bx+si]
00001022  0E                push cs
00001023  0000              add [bx+si],al
00001025  0000              add [bx+si],al
00001027  00948A04          add [si+0x48a],dl
0000102B  0800              or [bx+si],al
0000102D  0000              add [bx+si],al
0000102F  0003              add [bp+di],al
00001031  000F              add [bx],cl
00001033  0000              add [bx+si],al
00001035  0000              add [bx+si],al
00001037  00A88A04          add [bx+si+0x48a],ch
0000103B  0800              or [bx+si],al
0000103D  0000              add [bx+si],al
0000103F  0003              add [bp+di],al
00001041  0010              add [bx+si],dl
00001043  0000              add [bx+si],al
00001045  0000              add [bx+si],al
00001047  0038              add [bx+si],bh
00001049  8B04              mov ax,[si]
0000104B  0800              or [bx+si],al
0000104D  0000              add [bx+si],al
0000104F  0003              add [bp+di],al
00001051  0011              add [bx+di],dl
00001053  0000              add [bx+si],al
00001055  0000              add [bx+si],al
00001057  00B48B04          add [si+0x48b],dh
0000105B  0800              or [bx+si],al
0000105D  0000              add [bx+si],al
0000105F  0003              add [bp+di],al
00001061  0012              add [bp+si],dl
00001063  0000              add [bx+si],al
00001065  0000              add [bx+si],al
00001067  00C8              add al,cl
00001069  9D                popfw
0000106A  0408              add al,0x8
0000106C  0000              add [bx+si],al
0000106E  0000              add [bx+si],al
00001070  0300              add ax,[bx+si]
00001072  1300              adc ax,[bx+si]
00001074  0000              add [bx+si],al
00001076  0000              add [bx+si],al
00001078  D09D0408          rcr byte [di+0x804],1
0000107C  0000              add [bx+si],al
0000107E  0000              add [bx+si],al
00001080  0300              add ax,[bx+si]
00001082  1400              adc al,0x0
00001084  0000              add [bx+si],al
00001086  0000              add [bx+si],al
00001088  D49D              aam 0x9d
0000108A  0408              add al,0x8
0000108C  0000              add [bx+si],al
0000108E  0000              add [bx+si],al
00001090  0300              add ax,[bx+si]
00001092  150000            adc ax,0x0
00001095  0000              add [bx+si],al
00001097  00D8              add al,bl
00001099  9D                popfw
0000109A  0408              add al,0x8
0000109C  0000              add [bx+si],al
0000109E  0000              add [bx+si],al
000010A0  0300              add ax,[bx+si]
000010A2  16                push ss
000010A3  0000              add [bx+si],al
000010A5  0000              add [bx+si],al
000010A7  00D8              add al,bl
000010A9  9E                sahf
000010AA  0408              add al,0x8
000010AC  0000              add [bx+si],al
000010AE  0000              add [bx+si],al
000010B0  0300              add ax,[bx+si]
000010B2  17                pop ss
000010B3  0000              add [bx+si],al
000010B5  0000              add [bx+si],al
000010B7  00DC              add ah,bl
000010B9  9E                sahf
000010BA  0408              add al,0x8
000010BC  0000              add [bx+si],al
000010BE  0000              add [bx+si],al
000010C0  0300              add ax,[bx+si]
000010C2  1800              sbb [bx+si],al
000010C4  0000              add [bx+si],al
000010C6  0000              add [bx+si],al
000010C8  109F0408          adc [bx+0x804],bl
000010CC  0000              add [bx+si],al
000010CE  0000              add [bx+si],al
000010D0  0300              add ax,[bx+si]
000010D2  1900              sbb [bx+si],ax
000010D4  0000              add [bx+si],al
000010D6  0000              add [bx+si],al
000010D8  189F0408          sbb [bx+0x804],bl
000010DC  0000              add [bx+si],al
000010DE  0000              add [bx+si],al
000010E0  0300              add ax,[bx+si]
000010E2  1A00              sbb al,[bx+si]
000010E4  0000              add [bx+si],al
000010E6  0000              add [bx+si],al
000010E8  0000              add [bx+si],al
000010EA  0000              add [bx+si],al
000010EC  0000              add [bx+si],al
000010EE  0000              add [bx+si],al
000010F0  0300              add ax,[bx+si]
000010F2  1B00              sbb ax,[bx+si]
000010F4  0100              add [bx+si],ax
000010F6  0000              add [bx+si],al
000010F8  0000              add [bx+si],al
000010FA  0000              add [bx+si],al
000010FC  0000              add [bx+si],al
000010FE  0000              add [bx+si],al
00001100  0400              add al,0x0
00001102  F1                int1
00001103  FF08              dec word [bx+si]
00001105  0000              add [bx+si],al
00001107  0000              add [bx+si],al
00001109  0000              add [bx+si],al
0000110B  0000              add [bx+si],al
0000110D  0000              add [bx+si],al
0000110F  0004              add [si],al
00001111  00F1              add cl,dh
00001113  FF13              call word [bp+di]
00001115  0000              add [bx+si],al
00001117  00D4              add ah,dl
00001119  9D                popfw
0000111A  0408              add al,0x8
0000111C  0000              add [bx+si],al
0000111E  0000              add [bx+si],al
00001120  0100              add [bx+si],ax
00001122  150020            adc ax,0x2000
00001125  0000              add [bx+si],al
00001127  00A08604          add [bx+si+0x486],ah
0000112B  0800              or [bx+si],al
0000112D  0000              add [bx+si],al
0000112F  0002              add [bp+si],al
00001131  000E0022          add [0x2200],cl
00001135  0000              add [bx+si],al
00001137  00D0              add al,dl
00001139  8604              xchg al,[si]
0000113B  0800              or [bx+si],al
0000113D  0000              add [bx+si],al
0000113F  0002              add [bp+si],al
00001141  000E0035          add [0x3500],cl
00001145  0000              add [bx+si],al
00001147  0010              add [bx+si],dl
00001149  8704              xchg ax,[si]
0000114B  0800              or [bx+si],al
0000114D  0000              add [bx+si],al
0000114F  0002              add [bp+si],al
00001151  000E004B          add [0x4b00],cl
00001155  0000              add [bx+si],al
00001157  00709F            add [bx+si-0x61],dh
0000115A  0408              add al,0x8
0000115C  0100              add [bx+si],ax
0000115E  0000              add [bx+si],al
00001160  0100              add [bx+si],ax
00001162  1A00              sbb al,[bx+si]
00001164  5A                pop dx
00001165  0000              add [bx+si],al
00001167  00D0              add al,dl
00001169  9D                popfw
0000116A  0408              add al,0x8
0000116C  0000              add [bx+si],al
0000116E  0000              add [bx+si],al
00001170  0100              add [bx+si],ax
00001172  1400              adc al,0x0
00001174  81000000          add word [bx+si],0x0
00001178  30870408          xor [bx+0x804],al
0000117C  0000              add [bx+si],al
0000117E  0000              add [bx+si],al
00001180  0200              add al,[bx+si]
00001182  0E                push cs
00001183  008D0000          add [di+0x0],cl
00001187  00C8              add al,cl
00001189  9D                popfw
0000118A  0408              add al,0x8
0000118C  0000              add [bx+si],al
0000118E  0000              add [bx+si],al
00001190  0100              add [bx+si],ax
00001192  1300              adc ax,[bx+si]
00001194  AC                lodsb
00001195  0000              add [bx+si],al
00001197  0000              add [bx+si],al
00001199  0000              add [bx+si],al
0000119B  0000              add [bx+si],al
0000119D  0000              add [bx+si],al
0000119F  0004              add [si],al
000011A1  00F1              add cl,dh
000011A3  FF                db 0xff
000011A4  B80000            mov ax,0x0
000011A7  00B08A04          add [bx+si+0x48a],dh
000011AB  0801              or [bx+di],al
000011AD  0000              add [bx+si],al
000011AF  0001              add [bx+di],al
000011B1  0010              add [bx+si],dl
000011B3  00D3              add bl,dl
000011B5  0000              add [bx+si],al
000011B7  00719F            add [bx+di-0x61],dh
000011BA  0408              add al,0x8
000011BC  0100              add [bx+si],ax
000011BE  0000              add [bx+si],al
000011C0  0100              add [bx+si],ax
000011C2  1A00              sbb al,[bx+si]
000011C4  E200              loop 0x11c6
000011C6  0000              add [bx+si],al
000011C8  E88804            call word 0x1653
000011CB  084200            or [bp+si+0x0],al
000011CE  0000              add [bx+si],al
000011D0  0200              add al,[bx+si]
000011D2  0E                push cs
000011D3  0012              add [bp+si],dl
000011D5  0100              add [bx+si],ax
000011D7  002A              add [bp+si],ch
000011D9  8904              mov [si],ax
000011DB  081A              or [bp+si],bl
000011DD  0000              add [bx+si],al
000011DF  0002              add [bp+si],al
000011E1  000E0008          add [0x800],cl
000011E5  0000              add [bx+si],al
000011E7  0000              add [bx+si],al
000011E9  0000              add [bx+si],al
000011EB  0000              add [bx+si],al
000011ED  0000              add [bx+si],al
000011EF  0004              add [si],al
000011F1  00F1              add cl,dh
000011F3  FF37              push word [bx]
000011F5  0100              add [bx+si],ax
000011F7  00C4              add ah,al
000011F9  8D04              lea ax,[si]
000011FB  0800              or [bx+si],al
000011FD  0000              add [bx+si],al
000011FF  0001              add [bx+di],al
00001201  0012              add [bp+si],dl
00001203  004501            add [di+0x1],al
00001206  0000              add [bx+si],al
00001208  D49D              aam 0x9d
0000120A  0408              add al,0x8
0000120C  0000              add [bx+si],al
0000120E  0000              add [bx+si],al
00001210  0100              add [bx+si],ax
00001212  150000            adc ax,0x0
00001215  0000              add [bx+si],al
00001217  0000              add [bx+si],al
00001219  0000              add [bx+si],al
0000121B  0000              add [bx+si],al
0000121D  0000              add [bx+si],al
0000121F  0004              add [si],al
00001221  00F1              add cl,dh
00001223  FF5101            call word [bx+di+0x1]
00001226  0000              add [bx+si],al
00001228  388B0408          cmp [bp+di+0x804],cl
0000122C  0000              add [bx+si],al
0000122E  0000              add [bx+si],al
00001230  0000              add [bx+si],al
00001232  1100              adc [bx+si],ax
00001234  640100            add [fs:bx+si],ax
00001237  00DC              add ah,bl
00001239  9E                sahf
0000123A  0408              add al,0x8
0000123C  0000              add [bx+si],al
0000123E  0000              add [bx+si],al
00001240  0100              add [bx+si],ax
00001242  1800              sbb [bx+si],al
00001244  7A01              jpe 0x1247
00001246  0000              add [bx+si],al
00001248  D09D0408          rcr byte [di+0x804],1
0000124C  0000              add [bx+si],al
0000124E  0000              add [bx+si],al
00001250  0000              add [bx+si],al
00001252  1300              adc ax,[bx+si]
00001254  8B01              mov ax,[bx+di]
00001256  0000              add [bx+si],al
00001258  C89D0408          enter 0x49d,0x8
0000125C  0000              add [bx+si],al
0000125E  0000              add [bx+si],al
00001260  0000              add [bx+si],al
00001262  1300              adc ax,[bx+si]
00001264  9E                sahf
00001265  0100              add [bx+si],ax
00001267  00D8              add al,bl
00001269  9D                popfw
0000126A  0408              add al,0x8
0000126C  0000              add [bx+si],al
0000126E  0000              add [bx+si],al
00001270  0100              add [bx+si],ax
00001272  16                push ss
00001273  005C03            add [si+0x3],bl
00001276  0000              add [bx+si],al
00001278  109F0408          adc [bx+0x804],bl
0000127C  0000              add [bx+si],al
0000127E  0000              add [bx+si],al
00001280  2000              and [bx+si],al
00001282  1900              sbb [bx+si],ax
00001284  A7                cmpsw
00001285  0100              add [bx+si],ax
00001287  0018              add [bx+si],bl
00001289  8B04              mov ax,[si]
0000128B  080A              or [bp+si],cl
0000128D  0000              add [bx+si],al
0000128F  0021              add [bx+di],ah
00001291  0010              add [bx+si],dl
00001293  00B50100          add [di+0x1],dh
00001297  0000              add [bx+si],al
00001299  0000              add [bx+si],al
0000129B  0000              add [bx+si],al
0000129D  0000              add [bx+si],al
0000129F  0012              add [bp+si],dl
000012A1  0000              add [bx+si],al
000012A3  00CF              add bh,cl
000012A5  0100              add [bx+si],ax
000012A7  00DE              add dh,bl
000012A9  8904              mov [si],ax
000012AB  0822              or [bp+si],ah
000012AD  0000              add [bx+si],al
000012AF  0022              add [bp+si],ah
000012B1  000E00E0          add [0xe000],cl
000012B5  0100              add [bx+si],ax
000012B7  002C              add [si],ch
000012B9  8B04              mov ax,[si]
000012BB  080B              or [bp+di],cl
000012BD  0000              add [bx+si],al
000012BF  0021              add [bx+di],ah
000012C1  0010              add [bx+si],dl
000012C3  00EF              add bh,ch
000012C5  0100              add [bx+si],ax
000012C7  00908A04          add [bx+si+0x48a],dl
000012CB  0802              or [bp+si],al
000012CD  0000              add [bx+si],al
000012CF  0012              add [bp+si],dl
000012D1  000E00FF          add [0xff00],cl
000012D5  0100              add [bx+si],ax
000012D7  0000              add [bx+si],al
000012D9  8A04              mov al,[si]
000012DB  0822              or [bp+si],ah
000012DD  0000              add [bx+si],al
000012DF  0022              add [bp+si],ah
000012E1  000E0060          add [0x6000],cl
000012E5  0300              add ax,[bx+si]
000012E7  006086            add [bx+si-0x7a],ah
000012EA  0408              add al,0x8
000012EC  0000              add [bx+si],al
000012EE  0000              add [bx+si],al
000012F0  1200              adc al,[bx+si]
000012F2  0E                push cs
000012F3  0010              add [bx+si],dl
000012F5  0200              add al,[bx+si]
000012F7  00A68904          add [bp+0x489],ah
000012FB  0828              or [bx+si],ch
000012FD  0000              add [bx+si],al
000012FF  0022              add [bp+si],ah
00001301  000E002C          add [0x2c00],cl
00001305  0200              add al,[bx+si]
00001307  0000              add [bx+si],al
00001309  0000              add [bx+si],al
0000130B  0000              add [bx+si],al
0000130D  0000              add [bx+si],al
0000130F  0020              add [bx+si],ah
00001311  0000              add [bx+si],al
00001313  003B              add [bp+di],bh
00001315  0200              add al,[bx+si]
00001317  0000              add [bx+si],al
00001319  0000              add [bx+si],al
0000131B  0000              add [bx+si],al
0000131D  0000              add [bx+si],al
0000131F  0020              add [bx+si],ah
00001321  0000              add [bx+si],al
00001323  004F02            add [bx+0x2],cl
00001326  0000              add [bx+si],al
00001328  A88A              test al,0x8a
0000132A  0408              add al,0x8
0000132C  0400              add al,0x0
0000132E  0000              add [bx+si],al
00001330  1100              adc [bx+si],ax
00001332  1000              adc [bx+si],al
00001334  F9                stc
00001335  0100              add [bx+si],ax
00001337  00948A04          add [si+0x48a],dl
0000133B  0800              or [bx+si],al
0000133D  0000              add [bx+si],al
0000133F  0012              add [bp+si],dl
00001341  000F              add [bx],cl
00001343  005602            add [bp+0x2],dl
00001346  0000              add [bx+si],al
00001348  0000              add [bx+si],al
0000134A  0000              add [bx+si],al
0000134C  0000              add [bx+si],al
0000134E  0000              add [bx+si],al
00001350  1200              adc al,[bx+si]
00001352  0000              add [bx+si],al
00001354  7B02              jpo 0x1358
00001356  0000              add [bx+si],al
00001358  CE                into
00001359  8904              mov [si],ax
0000135B  0810              or [bx+si],dl
0000135D  0000              add [bx+si],al
0000135F  0022              add [bp+si],ah
00001361  000E008D          add [0x8d00],cl
00001365  0200              add al,[bx+si]
00001367  00D0              add al,dl
00001369  8A04              mov al,[si]
0000136B  080C              or [si],cl
0000136D  0000              add [bx+si],al
0000136F  0021              add [bx+di],ah
00001371  0010              add [bx+si],dl
00001373  009B0200          add [bp+di+0x2],bl
00001377  0000              add [bx+si],al
00001379  0000              add [bx+si],al
0000137B  0000              add [bx+si],al
0000137D  0000              add [bx+si],al
0000137F  0012              add [bp+si],dl
00001381  0000              add [bx+si],al
00001383  00B80200          add [bx+si+0x2],bh
00001387  004489            add [si-0x77],al
0000138A  0408              add al,0x8
0000138C  1E                push ds
0000138D  0000              add [bx+si],al
0000138F  0022              add [bp+si],ah
00001391  000E00D4          add [0xd400],cl
00001395  0200              add al,[bx+si]
00001397  007E89            add [bp-0x77],bh
0000139A  0408              add al,0x8
0000139C  2800              sub [bx+si],al
0000139E  0000              add [bx+si],al
000013A0  2200              and al,[bx+si]
000013A2  0E                push cs
000013A3  00F0              add al,dh
000013A5  0200              add al,[bx+si]
000013A7  00E0              add al,ah
000013A9  8504              test [si],ax
000013AB  0800              or [bx+si],al
000013AD  0000              add [bx+si],al
000013AF  0012              add [bp+si],dl
000013B1  0000              add [bx+si],al
000013B3  0015              add [di],dl
000013B5  0300              add ax,[bx+si]
000013B7  0000              add [bx+si],al
000013B9  0000              add [bx+si],al
000013BB  0000              add [bx+si],al
000013BD  0000              add [bx+si],al
000013BF  0020              add [bx+si],ah
000013C1  0000              add [bx+si],al
000013C3  0031              add [bx+di],dh
000013C5  0300              add ax,[bx+si]
000013C7  00AC8A04          add [si+0x48a],ch
000013CB  0804              or [si],al
000013CD  0000              add [bx+si],al
000013CF  0011              add [bx+di],dl
000013D1  0010              add [bx+si],dl
000013D3  004003            add [bx+si+0x3],al
000013D6  0000              add [bx+si],al
000013D8  0000              add [bx+si],al
000013DA  0000              add [bx+si],al
000013DC  0000              add [bx+si],al
000013DE  0000              add [bx+si],al
000013E0  2000              and [bx+si],al
000013E2  0000              add [bx+si],al
000013E4  5A                pop dx
000013E5  0300              add ax,[bx+si]
000013E7  0010              add [bx+si],dl
000013E9  9F                lahf
000013EA  0408              add al,0x8
000013EC  0000              add [bx+si],al
000013EE  0000              add [bx+si],al
000013F0  1000              adc [bx+si],al
000013F2  1900              sbb [bx+si],ax
000013F4  670300            add ax,[eax]
000013F7  0018              add [bx+si],bl
000013F9  9F                lahf
000013FA  0408              add al,0x8
000013FC  2C00              sub al,0x0
000013FE  0000              add [bx+si],al
00001400  2100              and [bx+si],ax
00001402  1A00              sbb al,[bx+si]
00001404  99                cwd
00001405  0300              add ax,[bx+si]
00001407  00DE              add dh,bl
00001409  8904              mov [si],ax
0000140B  0822              or [bp+si],ah
0000140D  0000              add [bx+si],al
0000140F  0022              add [bp+si],ah
00001411  000E00AA          add [0xaa00],cl
00001415  0300              add ax,[bx+si]
00001417  00908604          add [bx+si+0x486],dl
0000141B  0804              or [si],al
0000141D  0000              add [bx+si],al
0000141F  0012              add [bp+si],dl
00001421  020E00C0          add cl,[0xc000]
00001425  0300              add ax,[bx+si]
00001427  00DC              add ah,bl
00001429  8A04              mov al,[si]
0000142B  080C              or [si],cl
0000142D  0000              add [bx+si],al
0000142F  0021              add [bx+di],ah
00001431  0010              add [bx+si],dl
00001433  00CE              add dh,cl
00001435  0300              add ax,[bx+si]
00001437  006289            add [bp+si-0x77],ah
0000143A  0408              add al,0x8
0000143C  1B00              sbb ax,[bx+si]
0000143E  0000              add [bx+si],al
00001440  2200              and al,[bx+si]
00001442  0E                push cs
00001443  00EB              add bl,ch
00001445  0300              add ax,[bx+si]
00001447  0018              add [bx+si],bl
00001449  9F                lahf
0000144A  0408              add al,0x8
0000144C  0000              add [bx+si],al
0000144E  0000              add [bx+si],al
00001450  1102              adc [bp+si],ax
00001452  1900              sbb [bx+si],ax
00001454  F7030000          test word [bp+di],0x0
00001458  F4                hlt
00001459  8A04              mov al,[si]
0000145B  080C              or [si],cl
0000145D  0000              add [bx+si],al
0000145F  0021              add [bx+di],ah
00001461  0010              add [bx+si],dl
00001463  0005              add [di],al
00001465  0400              add al,0x0
00001467  0014              add [si],dl
00001469  9F                lahf
0000146A  0408              add al,0x8
0000146C  0000              add [bx+si],al
0000146E  0000              add [bx+si],al
00001470  1102              adc [bp+si],ax
00001472  1900              sbb [bx+si],ax
00001474  1204              adc al,[si]
00001476  0000              add [bx+si],al
00001478  0000              add [bx+si],al
0000147A  0000              add [bx+si],al
0000147C  0000              add [bx+si],al
0000147E  0000              add [bx+si],al
00001480  1200              adc al,[bx+si]
00001482  0000              add [bx+si],al
00001484  2404              and al,0x4
00001486  0000              add [bx+si],al
00001488  308A0408          xor [bp+si+0x804],cl
0000148C  5D                pop bp
0000148D  0000              add [bx+si],al
0000148F  0012              add [bp+si],dl
00001491  000E0034          add [0x3400],cl
00001495  0400              add al,0x0
00001497  0000              add [bx+si],al
00001499  0000              add [bx+si],al
0000149B  0000              add [bx+si],al
0000149D  0000              add [bx+si],al
0000149F  0012              add [bp+si],dl
000014A1  0000              add [bx+si],al
000014A3  004604            add [bp+0x4],al
000014A6  0000              add [bx+si],al
000014A8  0000              add [bx+si],al
000014AA  0000              add [bx+si],al
000014AC  0000              add [bx+si],al
000014AE  0000              add [bx+si],al
000014B0  1200              adc al,[bx+si]
000014B2  0000              add [bx+si],al
000014B4  59                pop cx
000014B5  0400              add al,0x0
000014B7  0024              add [si],ah
000014B9  8B04              mov ax,[si]
000014BB  0808              or [bx+si],cl
000014BD  0000              add [bx+si],al
000014BF  0021              add [bx+di],ah
000014C1  0010              add [bx+si],dl
000014C3  0021              add [bx+di],ah
000014C5  0100              add [bx+si],ax
000014C7  005B87            add [bp+di-0x79],bl
000014CA  0408              add al,0x8
000014CC  A90000            test ax,0x0
000014CF  0012              add [bp+si],dl
000014D1  000E0068          add [0x6800],cl
000014D5  0400              add al,0x0
000014D7  0018              add [bx+si],bl
000014D9  9F                lahf
000014DA  0408              add al,0x8
000014DC  0000              add [bx+si],al
000014DE  0000              add [bx+si],al
000014E0  1000              adc [bx+si],al
000014E2  1A00              sbb al,[bx+si]
000014E4  7404              jz 0x14ea
000014E6  0000              add [bx+si],al
000014E8  0000              add [bx+si],al
000014EA  0000              add [bx+si],al
000014EC  0000              add [bx+si],al
000014EE  0000              add [bx+si],al
000014F0  1200              adc al,[bx+si]
000014F2  0000              add [bx+si],al
000014F4  8604              xchg al,[si]
000014F6  0000              add [bx+si],al
000014F8  44                inc sp
000014F9  9F                lahf
000014FA  0408              add al,0x8
000014FC  2C00              sub al,0x0
000014FE  0000              add [bx+si],al
00001500  2100              and [bx+si],ax
00001502  1A00              sbb al,[bx+si]
00001504  BB0400            mov bx,0x4
00001507  0000              add [bx+si],al
00001509  8A04              mov al,[si]
0000150B  0822              or [bp+si],ah
0000150D  0000              add [bx+si],al
0000150F  0022              add [bp+si],ah
00001511  000E00CC          add [0xcc00],cl
00001515  0400              add al,0x0
00001517  000C              add [si],cl
00001519  8B04              mov ax,[si]
0000151B  080C              or [si],cl
0000151D  0000              add [bx+si],al
0000151F  0021              add [bx+di],ah
00001521  0010              add [bx+si],dl
00001523  00DA              add dl,bl
00001525  0400              add al,0x0
00001527  0000              add [bx+si],al
00001529  0000              add [bx+si],al
0000152B  0000              add [bx+si],al
0000152D  0000              add [bx+si],al
0000152F  0012              add [bp+si],dl
00001531  0000              add [bx+si],al
00001533  00860100          add [bp+0x1],al
00001537  00749F            add [si-0x61],dh
0000153A  0408              add al,0x8
0000153C  0000              add [bx+si],al
0000153E  0000              add [bx+si],al
00001540  1000              adc [bx+si],al
00001542  1A00              sbb al,[bx+si]
00001544  F00400            lock add al,0x0
00001547  0000              add [bx+si],al
00001549  8B04              mov ax,[si]
0000154B  080A              or [bp+si],cl
0000154D  0000              add [bx+si],al
0000154F  0021              add [bx+di],ah
00001551  0010              add [bx+si],dl
00001553  00FE              add dh,bh
00001555  0400              add al,0x0
00001557  0000              add [bx+si],al
00001559  0000              add [bx+si],al
0000155B  0000              add [bx+si],al
0000155D  0000              add [bx+si],al
0000155F  0012              add [bp+si],dl
00001561  0000              add [bx+si],al
00001563  000E0500          add [0x5],cl
00001567  0018              add [bx+si],bl
00001569  9F                lahf
0000156A  0408              add al,0x8
0000156C  0000              add [bx+si],al
0000156E  0000              add [bx+si],al
00001570  1000              adc [bx+si],al
00001572  1900              sbb [bx+si],ax
00001574  150500            adc ax,0x5
00001577  00E8              add al,ch
00001579  8A04              mov al,[si]
0000157B  080C              or [si],cl
0000157D  0000              add [bx+si],al
0000157F  0021              add [bx+di],ah
00001581  0010              add [bx+si],dl
00001583  0024              add [si],ah
00001585  050000            add ax,0x0
00001588  CE                into
00001589  8904              mov [si],ax
0000158B  0810              or [bx+si],dl
0000158D  0000              add [bx+si],al
0000158F  0022              add [bp+si],ah
00001591  000E0036          add [0x3600],cl
00001595  050000            add ax,0x0
00001598  0488              add al,0x88
0000159A  0408              add al,0x8
0000159C  E400              in al,0x0
0000159E  0000              add [bx+si],al
000015A0  1200              adc al,[bx+si]
000015A2  0E                push cs
000015A3  002E0400          add [0x4],ch
000015A7  007485            add [si-0x7b],dh
000015AA  0408              add al,0x8
000015AC  0000              add [bx+si],al
000015AE  0000              add [bx+si],al
000015B0  1200              adc al,[bx+si]
000015B2  0B00              or ax,[bx+si]
000015B4  00696E            add [bx+di+0x6e],ch
000015B7  69742E6300        imul si,[si+0x2e],word 0x63
000015BC  637274            arpl [bp+si+0x74],si
000015BF  7374              jnc 0x1635
000015C1  7566              jnz 0x1629
000015C3  662E6300          o32 arpl [cs:bx+si],ax
000015C7  5F                pop di
000015C8  5F                pop di
000015C9  4A                dec dx
000015CA  43                inc bx
000015CB  52                push dx
000015CC  5F                pop di
000015CD  4C                dec sp
000015CE  49                dec cx
000015CF  53                push bx
000015D0  54                push sp
000015D1  5F                pop di
000015D2  5F                pop di
000015D3  006465            add [si+0x65],ah
000015D6  7265              jc 0x163d
000015D8  676973746572      imul si,[ebx+0x74],word 0x7265
000015DE  5F                pop di
000015DF  746D              jz 0x164e
000015E1  5F                pop di
000015E2  636C6F            arpl [si+0x6f],bp
000015E5  6E                outsb
000015E6  657300            gs jnc 0x15e9
000015E9  5F                pop di
000015EA  5F                pop di
000015EB  646F              fs outsw
000015ED  5F                pop di
000015EE  676C              a32 insb
000015F0  6F                outsw
000015F1  62                db 0x62
000015F2  61                popaw
000015F3  6C                insb
000015F4  5F                pop di
000015F5  64746F            fs jz 0x1667
000015F8  7273              jc 0x166d
000015FA  5F                pop di
000015FB  61                popaw
000015FC  7578              jnz 0x1676
000015FE  00636F            add [bp+di+0x6f],ah
00001601  6D                insw
00001602  706C              jo 0x1670
00001604  657465            gs jz 0x166c
00001607  642E363837        cmp [ss:bx],dh
0000160C  3300              xor ax,[bx+si]
0000160E  5F                pop di
0000160F  5F                pop di
00001610  646F              fs outsw
00001612  5F                pop di
00001613  676C              a32 insb
00001615  6F                outsw
00001616  62                db 0x62
00001617  61                popaw
00001618  6C                insb
00001619  5F                pop di
0000161A  64746F            fs jz 0x168c
0000161D  7273              jc 0x1692
0000161F  5F                pop di
00001620  61                popaw
00001621  7578              jnz 0x169b
00001623  5F                pop di
00001624  66696E695F617272  imul ebp,[bp+0x69],dword 0x7272615f
0000162C  61                popaw
0000162D  795F              jns 0x168e
0000162F  656E              gs outsb
00001631  7472              jz 0x16a5
00001633  7900              jns 0x1635
00001635  667261            o32 jc 0x1699
00001638  6D                insw
00001639  655F              gs pop di
0000163B  64756D            fs jnz 0x16ab
0000163E  6D                insw
0000163F  7900              jns 0x1641
00001641  5F                pop di
00001642  5F                pop di
00001643  667261            o32 jc 0x16a7
00001646  6D                insw
00001647  655F              gs pop di
00001649  64756D            fs jnz 0x16b9
0000164C  6D                insw
0000164D  795F              jns 0x16ae
0000164F  696E69745F        imul bp,[bp+0x69],word 0x5f74
00001654  61                popaw
00001655  7272              jc 0x16c9
00001657  61                popaw
00001658  795F              jns 0x16b9
0000165A  656E              gs outsb
0000165C  7472              jz 0x16d0
0000165E  7900              jns 0x1660
00001660  657861            gs js 0x16c4
00001663  6D                insw
00001664  706C              jo 0x16d2
00001666  652E637070        arpl [cs:bx+si+0x70],si
0000166B  005F5A            add [bx+0x5a],bl
0000166E  53                push bx
0000166F  744C              jz 0x16bd
00001671  3139              xor [bx+di],di
00001673  7069              jo 0x16de
00001675  65636577          arpl [gs:di+0x77],sp
00001679  6973655F63        imul si,[bp+di+0x65],word 0x635f
0000167E  6F                outsw
0000167F  6E                outsb
00001680  7374              jnc 0x16f6
00001682  7275              jc 0x16f9
00001684  637400            arpl [si+0x0],si
00001687  5F                pop di
00001688  5A                pop dx
00001689  53                push bx
0000168A  744C              jz 0x16d8
0000168C  385F5F            cmp [bx+0x5f],bl
0000168F  696F696E69        imul bp,[bx+0x69],word 0x696e
00001694  7400              jz 0x1696
00001696  5F                pop di
00001697  5A                pop dx
00001698  3431              xor al,0x31
0000169A  5F                pop di
0000169B  5F                pop di
0000169C  7374              jnc 0x1712
0000169E  61                popaw
0000169F  7469              jz 0x170a
000016A1  635F69            arpl [bx+0x69],bx
000016A4  6E                outsb
000016A5  697469616C        imul si,[si+0x69],word 0x6c61
000016AA  697A617469        imul di,[bp+si+0x61],word 0x6974
000016AF  6F                outsw
000016B0  6E                outsb
000016B1  5F                pop di
000016B2  61                popaw
000016B3  6E                outsb
000016B4  645F              fs pop di
000016B6  64657374          gs jnc 0x172e
000016BA  7275              jc 0x1731
000016BC  637469            arpl [si+0x69],si
000016BF  6F                outsw
000016C0  6E                outsb
000016C1  5F                pop di
000016C2  306969            xor [bx+di+0x69],ch
000016C5  005F47            add [bx+0x47],bl
000016C8  4C                dec sp
000016C9  4F                dec di
000016CA  42                inc dx
000016CB  41                inc cx
000016CC  4C                dec sp
000016CD  5F                pop di
000016CE  5F                pop di
000016CF  7375              jnc 0x1746
000016D1  625F49            bound bx,[bx+0x49]
000016D4  5F                pop di
000016D5  5F                pop di
000016D6  5A                pop dx
000016D7  3134              xor [si],si
000016D9  627566            bound si,[di+0x66]
000016DC  6665724F          gs o32 jc 0x172f
000016E0  7665              jna 0x1747
000016E2  7266              jc 0x174a
000016E4  6C                insb
000016E5  6F                outsw
000016E6  776D              ja 0x1755
000016E8  6969005F5F        imul bp,[bx+di+0x0],word 0x5f5f
000016ED  46                inc si
000016EE  52                push dx
000016EF  41                inc cx
000016F0  4D                dec bp
000016F1  45                inc bp
000016F2  5F                pop di
000016F3  45                inc bp
000016F4  4E                dec si
000016F5  44                inc sp
000016F6  5F                pop di
000016F7  5F                pop di
000016F8  005F5F            add [bx+0x5f],bl
000016FB  4A                dec dx
000016FC  43                inc bx
000016FD  52                push dx
000016FE  5F                pop di
000016FF  45                inc bp
00001700  4E                dec si
00001701  44                inc sp
00001702  5F                pop di
00001703  5F                pop di
00001704  005F5F            add [bx+0x5f],bl
00001707  47                inc di
00001708  4E                dec si
00001709  55                push bp
0000170A  5F                pop di
0000170B  45                inc bp
0000170C  48                dec ax
0000170D  5F                pop di
0000170E  46                inc si
0000170F  52                push dx
00001710  41                inc cx
00001711  4D                dec bp
00001712  45                inc bp
00001713  5F                pop di
00001714  48                dec ax
00001715  44                inc sp
00001716  52                push dx
00001717  005F47            add [bx+0x47],bl
0000171A  4C                dec sp
0000171B  4F                dec di
0000171C  42                inc dx
0000171D  41                inc cx
0000171E  4C                dec sp
0000171F  5F                pop di
00001720  4F                dec di
00001721  46                inc si
00001722  46                inc si
00001723  53                push bx
00001724  45                inc bp
00001725  54                push sp
00001726  5F                pop di
00001727  54                push sp
00001728  41                inc cx
00001729  42                inc dx
0000172A  4C                dec sp
0000172B  45                inc bp
0000172C  5F                pop di
0000172D  005F5F            add [bx+0x5f],bl
00001730  696E69745F        imul bp,[bp+0x69],word 0x5f74
00001735  61                popaw
00001736  7272              jc 0x17aa
00001738  61                popaw
00001739  795F              jns 0x179a
0000173B  656E              gs outsb
0000173D  64005F5F          add [fs:bx+0x5f],bl
00001741  696E69745F        imul bp,[bp+0x69],word 0x5f74
00001746  61                popaw
00001747  7272              jc 0x17bb
00001749  61                popaw
0000174A  795F              jns 0x17ab
0000174C  7374              jnc 0x17c2
0000174E  61                popaw
0000174F  7274              jc 0x17c5
00001751  005F44            add [bx+0x44],bl
00001754  59                pop cx
00001755  4E                dec si
00001756  41                inc cx
00001757  4D                dec bp
00001758  49                dec cx
00001759  43                inc bx
0000175A  005F5A            add [bx+0x5a],bl
0000175D  54                push sp
0000175E  53                push bx
0000175F  384D79            cmp [di+0x79],cl
00001762  43                inc bx
00001763  6C                insb
00001764  61                popaw
00001765  7373              jnc 0x17da
00001767  3100              xor [bx+si],ax
00001769  5F                pop di
0000176A  5F                pop di
0000176B  637861            arpl [bx+si+0x61],di
0000176E  5F                pop di
0000176F  61                popaw
00001770  7465              jz 0x17d7
00001772  7869              js 0x17dd
00001774  7440              jz 0x17b6
00001776  40                inc ax
00001777  47                inc di
00001778  4C                dec sp
00001779  49                dec cx
0000177A  42                inc dx
0000177B  43                inc bx
0000177C  5F                pop di
0000177D  322E312E          xor ch,[0x2e31]
00001781  3300              xor ax,[bx+si]
00001783  5F                pop di
00001784  5A                pop dx
00001785  4E                dec si
00001786  384D79            cmp [di+0x79],cl
00001789  43                inc bx
0000178A  6C                insb
0000178B  61                popaw
0000178C  7373              jnc 0x1801
0000178E  314331            xor [bp+di+0x31],ax
00001791  45                inc bp
00001792  7600              jna 0x1794
00001794  5F                pop di
00001795  5A                pop dx
00001796  54                push sp
00001797  53                push bx
00001798  394261            cmp [bp+si+0x61],ax
0000179B  7365              jnc 0x1802
0000179D  43                inc bx
0000179E  6C                insb
0000179F  61                popaw
000017A0  7373              jnc 0x1815
000017A2  005F5F            add [bx+0x5f],bl
000017A5  6C                insb
000017A6  6962635F63        imul sp,[bp+si+0x63],word 0x635f
000017AB  7375              jnc 0x1822
000017AD  5F                pop di
000017AE  66696E69005F5A4E  imul ebp,[bp+0x69],dword 0x4e5a5f00
000017B6  384D79            cmp [di+0x79],cl
000017B9  43                inc bx
000017BA  6C                insb
000017BB  61                popaw
000017BC  7373              jnc 0x1831
000017BE  324331            xor al,[bp+di+0x31]
000017C1  45                inc bp
000017C2  7600              jna 0x17c4
000017C4  5F                pop di
000017C5  5A                pop dx
000017C6  4E                dec si
000017C7  384D79            cmp [di+0x79],cl
000017CA  43                inc bx
000017CB  6C                insb
000017CC  61                popaw
000017CD  7373              jnc 0x1842
000017CF  3231              xor dh,[bx+di]
000017D1  315072            xor [bx+si+0x72],dx
000017D4  696E744275        imul bp,[bp+0x74],word 0x7542
000017D9  6666657245        gs o32 jc 0x1823
000017DE  7600              jna 0x17e0
000017E0  5F                pop di
000017E1  5F                pop di
000017E2  676D              a32 insw
000017E4  6F                outsw
000017E5  6E                outsb
000017E6  5F                pop di
000017E7  7374              jnc 0x185d
000017E9  61                popaw
000017EA  7274              jc 0x1860
000017EC  5F                pop di
000017ED  5F                pop di
000017EE  005F4A            add [bx+0x4a],bl
000017F1  765F              jna 0x1852
000017F3  52                push dx
000017F4  65676973746572    imul si,[gs:ebx+0x74],word 0x7265
000017FB  43                inc bx
000017FC  6C                insb
000017FD  61                popaw
000017FE  7373              jnc 0x1873
00001800  657300            gs jnc 0x1803
00001803  5F                pop di
00001804  66705F            o32 jo 0x1866
00001807  687700            push word 0x77
0000180A  5F                pop di
0000180B  5A                pop dx
0000180C  4E                dec si
0000180D  53                push bx
0000180E  7438              jz 0x1848
00001810  696F735F62        imul bp,[bx+0x73],word 0x625f
00001815  61                popaw
00001816  7365              jnc 0x187d
00001818  3449              xor al,0x49
0000181A  6E                outsb
0000181B  6974433145        imul si,[si+0x43],word 0x4531
00001820  7640              jna 0x1862
00001822  40                inc ax
00001823  47                inc di
00001824  4C                dec sp
00001825  49                dec cx
00001826  42                inc dx
00001827  43                inc bx
00001828  58                pop ax
00001829  58                pop ax
0000182A  5F                pop di
0000182B  332E3400          xor bp,[0x34]
0000182F  5F                pop di
00001830  5A                pop dx
00001831  4E                dec si
00001832  394261            cmp [bp+si+0x61],ax
00001835  7365              jnc 0x189c
00001837  43                inc bx
00001838  6C                insb
00001839  61                popaw
0000183A  7373              jnc 0x18af
0000183C  43                inc bx
0000183D  314576            xor [di+0x76],ax
00001840  005F5A            add [bx+0x5a],bl
00001843  54                push sp
00001844  56                push si
00001845  384D79            cmp [di+0x79],cl
00001848  43                inc bx
00001849  6C                insb
0000184A  61                popaw
0000184B  7373              jnc 0x18c0
0000184D  3200              xor al,[bx+si]
0000184F  5F                pop di
00001850  5F                pop di
00001851  6C                insb
00001852  6962635F73        imul sp,[bp+si+0x63],word 0x735f
00001857  7461              jz 0x18ba
00001859  7274              jc 0x18cf
0000185B  5F                pop di
0000185C  6D                insw
0000185D  61                popaw
0000185E  696E404047        imul bp,[bp+0x40],word 0x4740
00001863  4C                dec sp
00001864  49                dec cx
00001865  42                inc dx
00001866  43                inc bx
00001867  5F                pop di
00001868  322E3000          xor ch,[0x30]
0000186C  5F                pop di
0000186D  5A                pop dx
0000186E  4E                dec si
0000186F  394261            cmp [bp+si+0x61],ax
00001872  7365              jnc 0x18d9
00001874  43                inc bx
00001875  6C                insb
00001876  61                popaw
00001877  7373              jnc 0x18ec
00001879  395365            cmp [bp+di+0x65],dx
0000187C  7442              jz 0x18c0
0000187E  7566              jnz 0x18e6
00001880  66657245          gs o32 jc 0x18c9
00001884  50                push ax
00001885  4B                dec bx
00001886  6300              arpl [bx+si],ax
00001888  5F                pop di
00001889  5A                pop dx
0000188A  4E                dec si
0000188B  384D79            cmp [di+0x79],cl
0000188E  43                inc bx
0000188F  6C                insb
00001890  61                popaw
00001891  7373              jnc 0x1906
00001893  3131              xor [bx+di],si
00001895  315072            xor [bx+si+0x72],dx
00001898  696E744275        imul bp,[bp+0x74],word 0x7542
0000189D  6666657245        gs o32 jc 0x18e7
000018A2  7600              jna 0x18a4
000018A4  5F                pop di
000018A5  5A                pop dx
000018A6  4E                dec si
000018A7  53                push bx
000018A8  7438              jz 0x18e2
000018AA  696F735F62        imul bp,[bx+0x73],word 0x625f
000018AF  61                popaw
000018B0  7365              jnc 0x1917
000018B2  3449              xor al,0x49
000018B4  6E                outsb
000018B5  6974443145        imul si,[si+0x44],word 0x4531
000018BA  7640              jna 0x18fc
000018BC  40                inc ax
000018BD  47                inc di
000018BE  4C                dec sp
000018BF  49                dec cx
000018C0  42                inc dx
000018C1  43                inc bx
000018C2  58                pop ax
000018C3  58                pop ax
000018C4  5F                pop di
000018C5  332E3400          xor bp,[0x34]
000018C9  5F                pop di
000018CA  49                dec cx
000018CB  54                push sp
000018CC  4D                dec bp
000018CD  5F                pop di
000018CE  64657265          gs jc 0x1937
000018D2  676973746572      imul si,[ebx+0x74],word 0x7265
000018D8  54                push sp
000018D9  4D                dec bp
000018DA  43                inc bx
000018DB  6C                insb
000018DC  6F                outsw
000018DD  6E                outsb
000018DE  6554              gs push sp
000018E0  61                popaw
000018E1  626C65            bound bp,[si+0x65]
000018E4  005F49            add [bx+0x49],bl
000018E7  4F                dec di
000018E8  5F                pop di
000018E9  7374              jnc 0x195f
000018EB  64696E5F7573      imul bp,[fs:bp+0x5f],word 0x7375
000018F1  6564005F49        add [fs:bx+0x49],bl
000018F6  54                push sp
000018F7  4D                dec bp
000018F8  5F                pop di
000018F9  7265              jc 0x1960
000018FB  676973746572      imul si,[ebx+0x74],word 0x7265
00001901  54                push sp
00001902  4D                dec bp
00001903  43                inc bx
00001904  6C                insb
00001905  6F                outsw
00001906  6E                outsb
00001907  6554              gs push sp
00001909  61                popaw
0000190A  626C65            bound bp,[si+0x65]
0000190D  005F5F            add [bx+0x5f],bl
00001910  6461              fs popaw
00001912  7461              jz 0x1975
00001914  5F                pop di
00001915  7374              jnc 0x198b
00001917  61                popaw
00001918  7274              jc 0x198e
0000191A  005F5A            add [bx+0x5a],bl
0000191D  54                push sp
0000191E  56                push si
0000191F  4E                dec si
00001920  3130              xor [bx+si],si
00001922  5F                pop di
00001923  5F                pop di
00001924  637878            arpl [bx+si+0x78],di
00001927  61                popaw
00001928  626976            bound bp,[bx+di+0x76]
0000192B  3131              xor [bx+di],si
0000192D  37                aaa
0000192E  5F                pop di
0000192F  5F                pop di
00001930  636C61            arpl [si+0x61],bp
00001933  7373              jnc 0x19a8
00001935  5F                pop di
00001936  7479              jz 0x19b1
00001938  7065              jo 0x199f
0000193A  5F                pop di
0000193B  696E666F45        imul bp,[bp+0x66],word 0x456f
00001940  40                inc ax
00001941  40                inc ax
00001942  43                inc bx
00001943  58                pop ax
00001944  58                pop ax
00001945  41                inc cx
00001946  42                inc dx
00001947  49                dec cx
00001948  5F                pop di
00001949  312E3300          xor [0x33],bp
0000194D  5F                pop di
0000194E  5A                pop dx
0000194F  4E                dec si
00001950  384D79            cmp [di+0x79],cl
00001953  43                inc bx
00001954  6C                insb
00001955  61                popaw
00001956  7373              jnc 0x19cb
00001958  314332            xor [bp+di+0x32],ax
0000195B  45                inc bp
0000195C  7600              jna 0x195e
0000195E  5F                pop di
0000195F  5F                pop di
00001960  7838              js 0x199a
00001962  362E6765745F      gs jz 0x19c7
00001968  7063              jo 0x19cd
0000196A  5F                pop di
0000196B  7468              jz 0x19d5
0000196D  756E              jnz 0x19dd
0000196F  6B2E627800        imul bp,[0x7862],byte +0x0
00001974  5F                pop di
00001975  5A                pop dx
00001976  54                push sp
00001977  56                push si
00001978  384D79            cmp [di+0x79],cl
0000197B  43                inc bx
0000197C  6C                insb
0000197D  61                popaw
0000197E  7373              jnc 0x19f3
00001980  3100              xor [bx+si],ax
00001982  5F                pop di
00001983  5A                pop dx
00001984  4E                dec si
00001985  394261            cmp [bp+si+0x61],ax
00001988  7365              jnc 0x19ef
0000198A  43                inc bx
0000198B  6C                insb
0000198C  61                popaw
0000198D  7373              jnc 0x1a02
0000198F  3131              xor [bx+di],si
00001991  50                push ax
00001992  7269              jc 0x19fd
00001994  6E                outsb
00001995  7442              jz 0x19d9
00001997  7566              jnz 0x19ff
00001999  66657245          gs o32 jc 0x19e2
0000199D  7600              jna 0x199f
0000199F  5F                pop di
000019A0  5F                pop di
000019A1  54                push sp
000019A2  4D                dec bp
000019A3  43                inc bx
000019A4  5F                pop di
000019A5  45                inc bp
000019A6  4E                dec si
000019A7  44                inc sp
000019A8  5F                pop di
000019A9  5F                pop di
000019AA  005F5A            add [bx+0x5a],bl
000019AD  54                push sp
000019AE  49                dec cx
000019AF  384D79            cmp [di+0x79],cl
000019B2  43                inc bx
000019B3  6C                insb
000019B4  61                popaw
000019B5  7373              jnc 0x1a2a
000019B7  3200              xor al,[bx+si]
000019B9  5F                pop di
000019BA  5F                pop di
000019BB  64736F            fs jnc 0x1a2d
000019BE  5F                pop di
000019BF  68616E            push word 0x6e61
000019C2  646C              fs insb
000019C4  65007374          add [gs:bp+di+0x74],dh
000019C8  7263              jc 0x1a2d
000019CA  7079              jo 0x1a45
000019CC  40                inc ax
000019CD  40                inc ax
000019CE  47                inc di
000019CF  4C                dec sp
000019D0  49                dec cx
000019D1  42                inc dx
000019D2  43                inc bx
000019D3  5F                pop di
000019D4  322E3000          xor ch,[0x30]
000019D8  5F                pop di
000019D9  5F                pop di
000019DA  6C                insb
000019DB  6962635F63        imul sp,[bp+si+0x63],word 0x635f
000019E0  7375              jnc 0x1a57
000019E2  5F                pop di
000019E3  696E697400        imul bp,[bp+0x69],word 0x74
000019E8  7072              jo 0x1a5c
000019EA  696E746640        imul bp,[bp+0x74],word 0x4066
000019EF  40                inc ax
000019F0  47                inc di
000019F1  4C                dec sp
000019F2  49                dec cx
000019F3  42                inc dx
000019F4  43                inc bx
000019F5  5F                pop di
000019F6  322E3000          xor ch,[0x30]
000019FA  5F                pop di
000019FB  5A                pop dx
000019FC  6E                outsb
000019FD  776A              ja 0x1a69
000019FF  40                inc ax
00001A00  40                inc ax
00001A01  47                inc di
00001A02  4C                dec sp
00001A03  49                dec cx
00001A04  42                inc dx
00001A05  43                inc bx
00001A06  58                pop ax
00001A07  58                pop ax
00001A08  5F                pop di
00001A09  332E3400          xor bp,[0x34]
00001A0D  5F                pop di
00001A0E  5A                pop dx
00001A0F  54                push sp
00001A10  49                dec cx
00001A11  394261            cmp [bp+si+0x61],ax
00001A14  7365              jnc 0x1a7b
00001A16  43                inc bx
00001A17  6C                insb
00001A18  61                popaw
00001A19  7373              jnc 0x1a8e
00001A1B  005F5F            add [bx+0x5f],bl
00001A1E  62                db 0x62
00001A1F  7373              jnc 0x1a94
00001A21  5F                pop di
00001A22  7374              jnc 0x1a98
00001A24  61                popaw
00001A25  7274              jc 0x1a9b
00001A27  006D61            add [di+0x61],ch
00001A2A  6C                insb
00001A2B  6C                insb
00001A2C  6F                outsw
00001A2D  634040            arpl [bx+si+0x40],ax
00001A30  47                inc di
00001A31  4C                dec sp
00001A32  49                dec cx
00001A33  42                inc dx
00001A34  43                inc bx
00001A35  5F                pop di
00001A36  322E3000          xor ch,[0x30]
00001A3A  5F                pop di
00001A3B  5A                pop dx
00001A3C  54                push sp
00001A3D  56                push si
00001A3E  4E                dec si
00001A3F  3130              xor [bx+si],si
00001A41  5F                pop di
00001A42  5F                pop di
00001A43  637878            arpl [bx+si+0x78],di
00001A46  61                popaw
00001A47  626976            bound bp,[bx+di+0x76]
00001A4A  3132              xor [bp+si],si
00001A4C  305F5F            xor [bx+0x5f],bl
00001A4F  7369              jnc 0x1aba
00001A51  5F                pop di
00001A52  636C61            arpl [si+0x61],bp
00001A55  7373              jnc 0x1aca
00001A57  5F                pop di
00001A58  7479              jz 0x1ad3
00001A5A  7065              jo 0x1ac1
00001A5C  5F                pop di
00001A5D  696E666F45        imul bp,[bp+0x66],word 0x456f
00001A62  40                inc ax
00001A63  40                inc ax
00001A64  43                inc bx
00001A65  58                pop ax
00001A66  58                pop ax
00001A67  41                inc cx
00001A68  42                inc dx
00001A69  49                dec cx
00001A6A  5F                pop di
00001A6B  312E3300          xor [0x33],bp
00001A6F  5F                pop di
00001A70  5A                pop dx
00001A71  4E                dec si
00001A72  384D79            cmp [di+0x79],cl
00001A75  43                inc bx
00001A76  6C                insb
00001A77  61                popaw
00001A78  7373              jnc 0x1aed
00001A7A  324332            xor al,[bp+di+0x32]
00001A7D  45                inc bp
00001A7E  7600              jna 0x1a80
00001A80  5F                pop di
00001A81  5A                pop dx
00001A82  54                push sp
00001A83  49                dec cx
00001A84  384D79            cmp [di+0x79],cl
00001A87  43                inc bx
00001A88  6C                insb
00001A89  61                popaw
00001A8A  7373              jnc 0x1aff
00001A8C  3100              xor [bx+si],ax
00001A8E  5F                pop di
00001A8F  5A                pop dx
00001A90  646C              fs insb
00001A92  50                push ax
00001A93  766A              jna 0x1aff
00001A95  40                inc ax
00001A96  40                inc ax
00001A97  43                inc bx
00001A98  58                pop ax
00001A99  58                pop ax
00001A9A  41                inc cx
00001A9B  42                inc dx
00001A9C  49                dec cx
00001A9D  5F                pop di
00001A9E  312E332E          xor [0x2e33],bp
00001AA2  3900              cmp [bx+si],ax
00001AA4  5F                pop di
00001AA5  5A                pop dx
00001AA6  54                push sp
00001AA7  53                push bx
00001AA8  384D79            cmp [di+0x79],cl
00001AAB  43                inc bx
00001AAC  6C                insb
00001AAD  61                popaw
00001AAE  7373              jnc 0x1b23
00001AB0  3200              xor al,[bx+si]
00001AB2  7075              jo 0x1b29
00001AB4  7473              jz 0x1b29
00001AB6  40                inc ax
00001AB7  40                inc ax
00001AB8  47                inc di
00001AB9  4C                dec sp
00001ABA  49                dec cx
00001ABB  42                inc dx
00001ABC  43                inc bx
00001ABD  5F                pop di
00001ABE  322E3000          xor ch,[0x30]
00001AC2  5F                pop di
00001AC3  656461            fs popaw
00001AC6  7461              jz 0x1b29
00001AC8  005F5A            add [bx+0x5a],bl
00001ACB  54                push sp
00001ACC  56                push si
00001ACD  394261            cmp [bp+si+0x61],ax
00001AD0  7365              jnc 0x1b37
00001AD2  43                inc bx
00001AD3  6C                insb
00001AD4  61                popaw
00001AD5  7373              jnc 0x1b4a
00001AD7  005F5A            add [bx+0x5a],bl
00001ADA  4E                dec si
00001ADB  394261            cmp [bp+si+0x61],ax
00001ADE  7365              jnc 0x1b45
00001AE0  43                inc bx
00001AE1  6C                insb
00001AE2  61                popaw
00001AE3  7373              jnc 0x1b58
00001AE5  43                inc bx
00001AE6  324576            xor al,[di+0x76]
00001AE9  006D61            add [di+0x61],ch
00001AEC  696E00002E        imul bp,[bp+0x0],word 0x2e00
00001AF1  7379              jnc 0x1b6c
00001AF3  6D                insw
00001AF4  7461              jz 0x1b57
00001AF6  6200              bound ax,[bx+si]
00001AF8  2E7374            cs jnc 0x1b6f
00001AFB  7274              jc 0x1b71
00001AFD  61                popaw
00001AFE  6200              bound ax,[bx+si]
00001B00  2E7368            cs jnc 0x1b6b
00001B03  7374              jnc 0x1b79
00001B05  7274              jc 0x1b7b
00001B07  61                popaw
00001B08  6200              bound ax,[bx+si]
00001B0A  2E696E746572      imul bp,[cs:bp+0x74],word 0x7265
00001B10  7000              jo 0x1b12
00001B12  2E6E              cs outsb
00001B14  6F                outsw
00001B15  7465              jz 0x1b7c
00001B17  2E41              cs inc cx
00001B19  42                inc dx
00001B1A  49                dec cx
00001B1B  2D7461            sub ax,0x6174
00001B1E  67002E            add [esi],ch
00001B21  6E                outsb
00001B22  6F                outsw
00001B23  7465              jz 0x1b8a
00001B25  2E676E            cs a32 outsb
00001B28  752E              jnz 0x1b58
00001B2A  627569            bound si,[di+0x69]
00001B2D  6C                insb
00001B2E  642D6964          fs sub ax,0x6469
00001B32  002E676E          add [0x6e67],ch
00001B36  752E              jnz 0x1b66
00001B38  686173            push word 0x7361
00001B3B  68002E            push word 0x2e00
00001B3E  64796E            fs jns 0x1baf
00001B41  7379              jnc 0x1bbc
00001B43  6D                insw
00001B44  002E6479          add [0x7964],ch
00001B48  6E                outsb
00001B49  7374              jnc 0x1bbf
00001B4B  7200              jc 0x1b4d
00001B4D  2E676E            cs a32 outsb
00001B50  752E              jnz 0x1b80
00001B52  7665              jna 0x1bb9
00001B54  7273              jc 0x1bc9
00001B56  696F6E002E        imul bp,[bx+0x6e],word 0x2e00
00001B5B  676E              a32 outsb
00001B5D  752E              jnz 0x1b8d
00001B5F  7665              jna 0x1bc6
00001B61  7273              jc 0x1bd6
00001B63  696F6E5F72        imul bp,[bx+0x6e],word 0x725f
00001B68  002E7265          add [0x6572],ch
00001B6C  6C                insb
00001B6D  2E64796E          fs jns 0x1bdf
00001B71  002E7265          add [0x6572],ch
00001B75  6C                insb
00001B76  2E706C            cs jo 0x1be5
00001B79  7400              jz 0x1b7b
00001B7B  2E696E697400      imul bp,[cs:bp+0x69],word 0x74
00001B81  2E706C            cs jo 0x1bf0
00001B84  742E              jz 0x1bb4
00001B86  676F              a32 outsw
00001B88  7400              jz 0x1b8a
00001B8A  2E7465            cs jz 0x1bf2
00001B8D  7874              js 0x1c03
00001B8F  002E6669          add [0x6966],ch
00001B93  6E                outsb
00001B94  69002E72          imul ax,[bx+si],word 0x722e
00001B98  6F                outsw
00001B99  6461              fs popaw
00001B9B  7461              jz 0x1bfe
00001B9D  002E6568          add [0x6865],ch
00001BA1  5F                pop di
00001BA2  667261            o32 jc 0x1c06
00001BA5  6D                insw
00001BA6  655F              gs pop di
00001BA8  686472            push word 0x7264
00001BAB  002E6568          add [0x6865],ch
00001BAF  5F                pop di
00001BB0  667261            o32 jc 0x1c14
00001BB3  6D                insw
00001BB4  65002E696E        add [gs:0x6e69],ch
00001BB9  69745F6172        imul si,[si+0x5f],word 0x7261
00001BBE  7261              jc 0x1c21
00001BC0  7900              jns 0x1bc2
00001BC2  2E66696E695F6172  imul ebp,[cs:bp+0x69],dword 0x7272615f
         -72
00001BCB  61                popaw
00001BCC  7900              jns 0x1bce
00001BCE  2E6A63            cs push byte +0x63
00001BD1  7200              jc 0x1bd3
00001BD3  2E64796E          fs jns 0x1c45
00001BD7  61                popaw
00001BD8  6D                insw
00001BD9  6963002E67        imul sp,[bp+di+0x0],word 0x672e
00001BDE  6F                outsw
00001BDF  742E              jz 0x1c0f
00001BE1  706C              jo 0x1c4f
00001BE3  7400              jz 0x1be5
00001BE5  2E6461            fs popaw
00001BE8  7461              jz 0x1c4b
00001BEA  002E6273          add [0x7362],ch
00001BEE  7300              jnc 0x1bf0
00001BF0  2E636F6D          arpl [cs:bx+0x6d],bp
00001BF4  6D                insw
00001BF5  656E              gs outsb
00001BF7  7400              jz 0x1bf9
00001BF9  0000              add [bx+si],al
00001BFB  0000              add [bx+si],al
00001BFD  0000              add [bx+si],al
00001BFF  0000              add [bx+si],al
00001C01  0000              add [bx+si],al
00001C03  0000              add [bx+si],al
00001C05  0000              add [bx+si],al
00001C07  0000              add [bx+si],al
00001C09  0000              add [bx+si],al
00001C0B  0000              add [bx+si],al
00001C0D  0000              add [bx+si],al
00001C0F  0000              add [bx+si],al
00001C11  0000              add [bx+si],al
00001C13  0000              add [bx+si],al
00001C15  0000              add [bx+si],al
00001C17  0000              add [bx+si],al
00001C19  0000              add [bx+si],al
00001C1B  0000              add [bx+si],al
00001C1D  0000              add [bx+si],al
00001C1F  0000              add [bx+si],al
00001C21  0000              add [bx+si],al
00001C23  001B              add [bp+di],bl
00001C25  0000              add [bx+si],al
00001C27  0001              add [bx+di],al
00001C29  0000              add [bx+si],al
00001C2B  0002              add [bp+si],al
00001C2D  0000              add [bx+si],al
00001C2F  0034              add [si],dh
00001C31  81040834          add word [si],0x3408
00001C35  0100              add [bx+si],ax
00001C37  0013              add [bp+di],dl
00001C39  0000              add [bx+si],al
00001C3B  0000              add [bx+si],al
00001C3D  0000              add [bx+si],al
00001C3F  0000              add [bx+si],al
00001C41  0000              add [bx+si],al
00001C43  0001              add [bx+di],al
00001C45  0000              add [bx+si],al
00001C47  0000              add [bx+si],al
00001C49  0000              add [bx+si],al
00001C4B  0023              add [bp+di],ah
00001C4D  0000              add [bx+si],al
00001C4F  0007              add [bx],al
00001C51  0000              add [bx+si],al
00001C53  0002              add [bp+si],al
00001C55  0000              add [bx+si],al
00001C57  004881            add [bx+si-0x7f],cl
00001C5A  0408              add al,0x8
00001C5C  48                dec ax
00001C5D  0100              add [bx+si],ax
00001C5F  0020              add [bx+si],ah
00001C61  0000              add [bx+si],al
00001C63  0000              add [bx+si],al
00001C65  0000              add [bx+si],al
00001C67  0000              add [bx+si],al
00001C69  0000              add [bx+si],al
00001C6B  0004              add [si],al
00001C6D  0000              add [bx+si],al
00001C6F  0000              add [bx+si],al
00001C71  0000              add [bx+si],al
00001C73  0031              add [bx+di],dh
00001C75  0000              add [bx+si],al
00001C77  0007              add [bx],al
00001C79  0000              add [bx+si],al
00001C7B  0002              add [bp+si],al
00001C7D  0000              add [bx+si],al
00001C7F  006881            add [bx+si-0x7f],ch
00001C82  0408              add al,0x8
00001C84  680100            push word 0x1
00001C87  0024              add [si],ah
00001C89  0000              add [bx+si],al
00001C8B  0000              add [bx+si],al
00001C8D  0000              add [bx+si],al
00001C8F  0000              add [bx+si],al
00001C91  0000              add [bx+si],al
00001C93  0004              add [si],al
00001C95  0000              add [bx+si],al
00001C97  0000              add [bx+si],al
00001C99  0000              add [bx+si],al
00001C9B  004400            add [si+0x0],al
00001C9E  0000              add [bx+si],al
00001CA0  F6FF              idiv bh
00001CA2  FF6F02            jmp word far [bx+0x2]
00001CA5  0000              add [bx+si],al
00001CA7  008C8104          add [si+0x481],cl
00001CAB  088C0100          or [si+0x1],cl
00001CAF  0030              add [bx+si],dh
00001CB1  0000              add [bx+si],al
00001CB3  0005              add [di],al
00001CB5  0000              add [bx+si],al
00001CB7  0000              add [bx+si],al
00001CB9  0000              add [bx+si],al
00001CBB  0004              add [si],al
00001CBD  0000              add [bx+si],al
00001CBF  0004              add [si],al
00001CC1  0000              add [bx+si],al
00001CC3  004E00            add [bp+0x0],cl
00001CC6  0000              add [bx+si],al
00001CC8  0B00              or ax,[bx+si]
00001CCA  0000              add [bx+si],al
00001CCC  0200              add al,[bx+si]
00001CCE  0000              add [bx+si],al
00001CD0  BC8104            mov sp,0x481
00001CD3  08BC0100          or [si+0x1],bh
00001CD7  0020              add [bx+si],ah
00001CD9  0100              add [bx+si],ax
00001CDB  00060000          add [0x0],al
00001CDF  0001              add [bx+di],al
00001CE1  0000              add [bx+si],al
00001CE3  0004              add [si],al
00001CE5  0000              add [bx+si],al
00001CE7  0010              add [bx+si],dl
00001CE9  0000              add [bx+si],al
00001CEB  005600            add [bp+0x0],dl
00001CEE  0000              add [bx+si],al
00001CF0  0300              add ax,[bx+si]
00001CF2  0000              add [bx+si],al
00001CF4  0200              add al,[bx+si]
00001CF6  0000              add [bx+si],al
00001CF8  DC820408          fadd qword [bp+si+0x804]
00001CFC  DC02              fadd qword [bp+si]
00001CFE  0000              add [bx+si],al
00001D00  9A01000000        call word 0x0:0x1
00001D05  0000              add [bx+si],al
00001D07  0000              add [bx+si],al
00001D09  0000              add [bx+si],al
00001D0B  0001              add [bx+di],al
00001D0D  0000              add [bx+si],al
00001D0F  0000              add [bx+si],al
00001D11  0000              add [bx+si],al
00001D13  005E00            add [bp+0x0],bl
00001D16  0000              add [bx+si],al
00001D18  FF                db 0xff
00001D19  FF                db 0xff
00001D1A  FF6F02            jmp word far [bx+0x2]
00001D1D  0000              add [bx+si],al
00001D1F  007684            add [bp-0x7c],dh
00001D22  0408              add al,0x8
00001D24  7604              jna 0x1d2a
00001D26  0000              add [bx+si],al
00001D28  2400              and al,0x0
00001D2A  0000              add [bx+si],al
00001D2C  050000            add ax,0x0
00001D2F  0000              add [bx+si],al
00001D31  0000              add [bx+si],al
00001D33  0002              add [bp+si],al
00001D35  0000              add [bx+si],al
00001D37  0002              add [bp+si],al
00001D39  0000              add [bx+si],al
00001D3B  006B00            add [bp+di+0x0],ch
00001D3E  0000              add [bx+si],al
00001D40  FE                db 0xfe
00001D41  FF                db 0xff
00001D42  FF6F02            jmp word far [bx+0x2]
00001D45  0000              add [bx+si],al
00001D47  009C8404          add [si+0x484],bl
00001D4B  089C0400          or [si+0x4],bl
00001D4F  007000            add [bx+si+0x0],dh
00001D52  0000              add [bx+si],al
00001D54  06                push es
00001D55  0000              add [bx+si],al
00001D57  0002              add [bp+si],al
00001D59  0000              add [bx+si],al
00001D5B  0004              add [si],al
00001D5D  0000              add [bx+si],al
00001D5F  0000              add [bx+si],al
00001D61  0000              add [bx+si],al
00001D63  007A00            add [bp+si+0x0],bh
00001D66  0000              add [bx+si],al
00001D68  0900              or [bx+si],ax
00001D6A  0000              add [bx+si],al
00001D6C  0200              add al,[bx+si]
00001D6E  0000              add [bx+si],al
00001D70  0C85              or al,0x85
00001D72  0408              add al,0x8
00001D74  0C05              or al,0x5
00001D76  0000              add [bx+si],al
00001D78  1800              sbb [bx+si],al
00001D7A  0000              add [bx+si],al
00001D7C  050000            add ax,0x0
00001D7F  0000              add [bx+si],al
00001D81  0000              add [bx+si],al
00001D83  0004              add [si],al
00001D85  0000              add [bx+si],al
00001D87  0008              add [bx+si],cl
00001D89  0000              add [bx+si],al
00001D8B  00830000          add [bp+di+0x0],al
00001D8F  0009              add [bx+di],cl
00001D91  0000              add [bx+si],al
00001D93  004200            add [bp+si+0x0],al
00001D96  0000              add [bx+si],al
00001D98  2485              and al,0x85
00001D9A  0408              add al,0x8
00001D9C  2405              and al,0x5
00001D9E  0000              add [bx+si],al
00001DA0  50                push ax
00001DA1  0000              add [bx+si],al
00001DA3  0005              add [di],al
00001DA5  0000              add [bx+si],al
00001DA7  0018              add [bx+si],bl
00001DA9  0000              add [bx+si],al
00001DAB  0004              add [si],al
00001DAD  0000              add [bx+si],al
00001DAF  0008              add [bx+si],cl
00001DB1  0000              add [bx+si],al
00001DB3  008C0000          add [si+0x0],cl
00001DB7  0001              add [bx+di],al
00001DB9  0000              add [bx+si],al
00001DBB  00060000          add [0x0],al
00001DBF  007485            add [si-0x7b],dh
00001DC2  0408              add al,0x8
00001DC4  7405              jz 0x1dcb
00001DC6  0000              add [bx+si],al
00001DC8  2300              and ax,[bx+si]
00001DCA  0000              add [bx+si],al
00001DCC  0000              add [bx+si],al
00001DCE  0000              add [bx+si],al
00001DD0  0000              add [bx+si],al
00001DD2  0000              add [bx+si],al
00001DD4  0400              add al,0x0
00001DD6  0000              add [bx+si],al
00001DD8  0000              add [bx+si],al
00001DDA  0000              add [bx+si],al
00001DDC  8700              xchg ax,[bx+si]
00001DDE  0000              add [bx+si],al
00001DE0  0100              add [bx+si],ax
00001DE2  0000              add [bx+si],al
00001DE4  06                push es
00001DE5  0000              add [bx+si],al
00001DE7  00A08504          add [bx+si+0x485],ah
00001DEB  08A00500          or [bx+si+0x5],ah
00001DEF  00B00000          add [bx+si+0x0],dh
00001DF3  0000              add [bx+si],al
00001DF5  0000              add [bx+si],al
00001DF7  0000              add [bx+si],al
00001DF9  0000              add [bx+si],al
00001DFB  0010              add [bx+si],dl
00001DFD  0000              add [bx+si],al
00001DFF  0004              add [si],al
00001E01  0000              add [bx+si],al
00001E03  00920000          add [bp+si+0x0],dl
00001E07  0001              add [bx+di],al
00001E09  0000              add [bx+si],al
00001E0B  00060000          add [0x0],al
00001E0F  005086            add [bx+si-0x7a],dl
00001E12  0408              add al,0x8
00001E14  50                push ax
00001E15  06                push es
00001E16  0000              add [bx+si],al
00001E18  0800              or [bx+si],al
00001E1A  0000              add [bx+si],al
00001E1C  0000              add [bx+si],al
00001E1E  0000              add [bx+si],al
00001E20  0000              add [bx+si],al
00001E22  0000              add [bx+si],al
00001E24  0800              or [bx+si],al
00001E26  0000              add [bx+si],al
00001E28  0000              add [bx+si],al
00001E2A  0000              add [bx+si],al
00001E2C  9B0000            wait add [bx+si],al
00001E2F  0001              add [bx+di],al
00001E31  0000              add [bx+si],al
00001E33  00060000          add [0x0],al
00001E37  006086            add [bx+si-0x7a],ah
00001E3A  0408              add al,0x8
00001E3C  60                pushaw
00001E3D  06                push es
00001E3E  0000              add [bx+si],al
00001E40  3204              xor al,[si]
00001E42  0000              add [bx+si],al
00001E44  0000              add [bx+si],al
00001E46  0000              add [bx+si],al
00001E48  0000              add [bx+si],al
00001E4A  0000              add [bx+si],al
00001E4C  1000              adc [bx+si],al
00001E4E  0000              add [bx+si],al
00001E50  0000              add [bx+si],al
00001E52  0000              add [bx+si],al
00001E54  A10000            mov ax,[0x0]
00001E57  0001              add [bx+di],al
00001E59  0000              add [bx+si],al
00001E5B  00060000          add [0x0],al
00001E5F  00948A04          add [si+0x48a],dl
00001E63  08940A00          or [si+0xa],dl
00001E67  0014              add [si],dl
00001E69  0000              add [bx+si],al
00001E6B  0000              add [bx+si],al
00001E6D  0000              add [bx+si],al
00001E6F  0000              add [bx+si],al
00001E71  0000              add [bx+si],al
00001E73  0004              add [si],al
00001E75  0000              add [bx+si],al
00001E77  0000              add [bx+si],al
00001E79  0000              add [bx+si],al
00001E7B  00A70000          add [bx+0x0],ah
00001E7F  0001              add [bx+di],al
00001E81  0000              add [bx+si],al
00001E83  0002              add [bp+si],al
00001E85  0000              add [bx+si],al
00001E87  00A88A04          add [bx+si+0x48a],ch
00001E8B  08A80A00          or [bx+si+0xa],ch
00001E8F  008F0000          add [bx+0x0],cl
00001E93  0000              add [bx+si],al
00001E95  0000              add [bx+si],al
00001E97  0000              add [bx+si],al
00001E99  0000              add [bx+si],al
00001E9B  0004              add [si],al
00001E9D  0000              add [bx+si],al
00001E9F  0000              add [bx+si],al
00001EA1  0000              add [bx+si],al
00001EA3  00AF0000          add [bx+0x0],ch
00001EA7  0001              add [bx+di],al
00001EA9  0000              add [bx+si],al
00001EAB  0002              add [bp+si],al
00001EAD  0000              add [bx+si],al
00001EAF  0038              add [bx+si],bh
00001EB1  8B04              mov ax,[si]
00001EB3  0838              or [bx+si],bh
00001EB5  0B00              or ax,[bx+si]
00001EB7  007C00            add [si+0x0],bh
00001EBA  0000              add [bx+si],al
00001EBC  0000              add [bx+si],al
00001EBE  0000              add [bx+si],al
00001EC0  0000              add [bx+si],al
00001EC2  0000              add [bx+si],al
00001EC4  0400              add al,0x0
00001EC6  0000              add [bx+si],al
00001EC8  0000              add [bx+si],al
00001ECA  0000              add [bx+si],al
00001ECC  BD0000            mov bp,0x0
00001ECF  0001              add [bx+di],al
00001ED1  0000              add [bx+si],al
00001ED3  0002              add [bp+si],al
00001ED5  0000              add [bx+si],al
00001ED7  00B48B04          add [si+0x48b],dh
00001EDB  08B40B00          or [si+0xb],dh
00001EDF  0014              add [si],dl
00001EE1  0200              add al,[bx+si]
00001EE3  0000              add [bx+si],al
00001EE5  0000              add [bx+si],al
00001EE7  0000              add [bx+si],al
00001EE9  0000              add [bx+si],al
00001EEB  0004              add [si],al
00001EED  0000              add [bx+si],al
00001EEF  0000              add [bx+si],al
00001EF1  0000              add [bx+si],al
00001EF3  00C7              add bh,al
00001EF5  0000              add [bx+si],al
00001EF7  000E0000          add [0x0],cl
00001EFB  0003              add [bp+di],al
00001EFD  0000              add [bx+si],al
00001EFF  00C8              add al,cl
00001F01  9D                popfw
00001F02  0408              add al,0x8
00001F04  C80D0000          enter 0xd,0x0
00001F08  0800              or [bx+si],al
00001F0A  0000              add [bx+si],al
00001F0C  0000              add [bx+si],al
00001F0E  0000              add [bx+si],al
00001F10  0000              add [bx+si],al
00001F12  0000              add [bx+si],al
00001F14  0400              add al,0x0
00001F16  0000              add [bx+si],al
00001F18  0000              add [bx+si],al
00001F1A  0000              add [bx+si],al
00001F1C  D300              rol word [bx+si],cl
00001F1E  0000              add [bx+si],al
00001F20  0F0000            sldt [bx+si]
00001F23  0003              add [bp+di],al
00001F25  0000              add [bx+si],al
00001F27  00D0              add al,dl
00001F29  9D                popfw
00001F2A  0408              add al,0x8
00001F2C  D00D              ror byte [di],1
00001F2E  0000              add [bx+si],al
00001F30  0400              add al,0x0
00001F32  0000              add [bx+si],al
00001F34  0000              add [bx+si],al
00001F36  0000              add [bx+si],al
00001F38  0000              add [bx+si],al
00001F3A  0000              add [bx+si],al
00001F3C  0400              add al,0x0
00001F3E  0000              add [bx+si],al
00001F40  0000              add [bx+si],al
00001F42  0000              add [bx+si],al
00001F44  DF00              fild word [bx+si]
00001F46  0000              add [bx+si],al
00001F48  0100              add [bx+si],ax
00001F4A  0000              add [bx+si],al
00001F4C  0300              add ax,[bx+si]
00001F4E  0000              add [bx+si],al
00001F50  D49D              aam 0x9d
00001F52  0408              add al,0x8
00001F54  D40D              aam 0xd
00001F56  0000              add [bx+si],al
00001F58  0400              add al,0x0
00001F5A  0000              add [bx+si],al
00001F5C  0000              add [bx+si],al
00001F5E  0000              add [bx+si],al
00001F60  0000              add [bx+si],al
00001F62  0000              add [bx+si],al
00001F64  0400              add al,0x0
00001F66  0000              add [bx+si],al
00001F68  0000              add [bx+si],al
00001F6A  0000              add [bx+si],al
00001F6C  E400              in al,0x0
00001F6E  0000              add [bx+si],al
00001F70  06                push es
00001F71  0000              add [bx+si],al
00001F73  0003              add [bp+di],al
00001F75  0000              add [bx+si],al
00001F77  00D8              add al,bl
00001F79  9D                popfw
00001F7A  0408              add al,0x8
00001F7C  D80D              fmul dword [di]
00001F7E  0000              add [bx+si],al
00001F80  0001              add [bx+di],al
00001F82  0000              add [bx+si],al
00001F84  06                push es
00001F85  0000              add [bx+si],al
00001F87  0000              add [bx+si],al
00001F89  0000              add [bx+si],al
00001F8B  0004              add [si],al
00001F8D  0000              add [bx+si],al
00001F8F  0008              add [bx+si],cl
00001F91  0000              add [bx+si],al
00001F93  00960000          add [bp+0x0],dl
00001F97  0001              add [bx+di],al
00001F99  0000              add [bx+si],al
00001F9B  0003              add [bp+di],al
00001F9D  0000              add [bx+si],al
00001F9F  00D8              add al,bl
00001FA1  9E                sahf
00001FA2  0408              add al,0x8
00001FA4  D80E0000          fmul dword [0x0]
00001FA8  0400              add al,0x0
00001FAA  0000              add [bx+si],al
00001FAC  0000              add [bx+si],al
00001FAE  0000              add [bx+si],al
00001FB0  0000              add [bx+si],al
00001FB2  0000              add [bx+si],al
00001FB4  0400              add al,0x0
00001FB6  0000              add [bx+si],al
00001FB8  0400              add al,0x0
00001FBA  0000              add [bx+si],al
00001FBC  ED                in ax,dx
00001FBD  0000              add [bx+si],al
00001FBF  0001              add [bx+di],al
00001FC1  0000              add [bx+si],al
00001FC3  0003              add [bp+di],al
00001FC5  0000              add [bx+si],al
00001FC7  00DC              add ah,bl
00001FC9  9E                sahf
00001FCA  0408              add al,0x8
00001FCC  DC0E0000          fmul qword [0x0]
00001FD0  3400              xor al,0x0
00001FD2  0000              add [bx+si],al
00001FD4  0000              add [bx+si],al
00001FD6  0000              add [bx+si],al
00001FD8  0000              add [bx+si],al
00001FDA  0000              add [bx+si],al
00001FDC  0400              add al,0x0
00001FDE  0000              add [bx+si],al
00001FE0  0400              add al,0x0
00001FE2  0000              add [bx+si],al
00001FE4  F60000            test byte [bx+si],0x0
00001FE7  0001              add [bx+di],al
00001FE9  0000              add [bx+si],al
00001FEB  0003              add [bp+di],al
00001FED  0000              add [bx+si],al
00001FEF  0010              add [bx+si],dl
00001FF1  9F                lahf
00001FF2  0408              add al,0x8
00001FF4  100F              adc [bx],cl
00001FF6  0000              add [bx+si],al
00001FF8  0800              or [bx+si],al
00001FFA  0000              add [bx+si],al
00001FFC  0000              add [bx+si],al
00001FFE  0000              add [bx+si],al
00002000  0000              add [bx+si],al
00002002  0000              add [bx+si],al
00002004  0400              add al,0x0
00002006  0000              add [bx+si],al
00002008  0000              add [bx+si],al
0000200A  0000              add [bx+si],al
0000200C  FC                cld
0000200D  0000              add [bx+si],al
0000200F  0008              add [bx+si],cl
00002011  0000              add [bx+si],al
00002013  0003              add [bp+di],al
00002015  0000              add [bx+si],al
00002017  0018              add [bx+si],bl
00002019  9F                lahf
0000201A  0408              add al,0x8
0000201C  180F              sbb [bx],cl
0000201E  0000              add [bx+si],al
00002020  5C                pop sp
00002021  0000              add [bx+si],al
00002023  0000              add [bx+si],al
00002025  0000              add [bx+si],al
00002027  0000              add [bx+si],al
00002029  0000              add [bx+si],al
0000202B  0004              add [si],al
0000202D  0000              add [bx+si],al
0000202F  0000              add [bx+si],al
00002031  0000              add [bx+si],al
00002033  0001              add [bx+di],al
00002035  0100              add [bx+si],ax
00002037  0001              add [bx+di],al
00002039  0000              add [bx+si],al
0000203B  0030              add [bx+si],dh
0000203D  0000              add [bx+si],al
0000203F  0000              add [bx+si],al
00002041  0000              add [bx+si],al
00002043  0018              add [bx+si],bl
00002045  0F0000            sldt [bx+si]
00002048  1A00              sbb al,[bx+si]
0000204A  0000              add [bx+si],al
0000204C  0000              add [bx+si],al
0000204E  0000              add [bx+si],al
00002050  0000              add [bx+si],al
00002052  0000              add [bx+si],al
00002054  0100              add [bx+si],ax
00002056  0000              add [bx+si],al
00002058  0100              add [bx+si],ax
0000205A  0000              add [bx+si],al
0000205C  1100              adc [bx+si],ax
0000205E  0000              add [bx+si],al
00002060  0300              add ax,[bx+si]
00002062  0000              add [bx+si],al
00002064  0000              add [bx+si],al
00002066  0000              add [bx+si],al
00002068  0000              add [bx+si],al
0000206A  0000              add [bx+si],al
0000206C  EF                out dx,ax
0000206D  1A00              sbb al,[bx+si]
0000206F  000A              add [bp+si],cl
00002071  0100              add [bx+si],ax
00002073  0000              add [bx+si],al
00002075  0000              add [bx+si],al
00002077  0000              add [bx+si],al
00002079  0000              add [bx+si],al
0000207B  0001              add [bx+di],al
0000207D  0000              add [bx+si],al
0000207F  0000              add [bx+si],al
00002081  0000              add [bx+si],al
00002083  0001              add [bx+di],al
00002085  0000              add [bx+si],al
00002087  0002              add [bp+si],al
00002089  0000              add [bx+si],al
0000208B  0000              add [bx+si],al
0000208D  0000              add [bx+si],al
0000208F  0000              add [bx+si],al
00002091  0000              add [bx+si],al
00002093  0034              add [si],dh
00002095  0F0000            sldt [bx+si]
00002098  800600001E        add byte [0x0],0x1e
0000209D  0000              add [bx+si],al
0000209F  0034              add [si],dh
000020A1  0000              add [bx+si],al
000020A3  0004              add [si],al
000020A5  0000              add [bx+si],al
000020A7  0010              add [bx+si],dl
000020A9  0000              add [bx+si],al
000020AB  0009              add [bx+di],cl
000020AD  0000              add [bx+si],al
000020AF  0003              add [bp+di],al
000020B1  0000              add [bx+si],al
000020B3  0000              add [bx+si],al
000020B5  0000              add [bx+si],al
000020B7  0000              add [bx+si],al
000020B9  0000              add [bx+si],al
000020BB  00B41500          add [si+0x15],dh
000020BF  003B              add [bp+di],bh
000020C1  050000            add ax,0x0
000020C4  0000              add [bx+si],al
000020C6  0000              add [bx+si],al
000020C8  0000              add [bx+si],al
000020CA  0000              add [bx+si],al
000020CC  0100              add [bx+si],ax
000020CE  0000              add [bx+si],al
000020D0  0000              add [bx+si],al
000020D2  0000              add [bx+si],al
